c__builtin__
set
p1
((lp2
Vbroken-heart
p3
aVhaggl
p4
aVlawbreak
p5
aVhatr
p6
aVbrashli
p7
aVpoorli
p8
aVprotest
p9
aVthirst
p10
aVtenuous
p11
aVhate
p12
aVinexpert
p13
aVdefraud
p14
aVskeleton
p15
aVaccus
p16
aVspew
p17
aVsorri
p18
aVpoorest
p19
aVscold
p20
aVself-destruct
p21
aVforebod
p22
aVdeviat
p23
aVfatcat
p24
aVdaze
p25
aVsputter
p26
aVunnatur
p27
aVhedg
p28
aVbulkier
p29
aVlonesom
p30
aVmilit
p31
aVlure
p32
aVrisk
p33
aVappal
p34
aVrebuk
p35
aVlurk
p36
aVdistort
p37
aVmanic
p38
aVsmack
p39
aVbefoul
p40
aVfoul
p41
aVgrumpier
p42
aVimproperli
p43
aVsenil
p44
aVdisturb
p45
aVtraumat
p46
aVunrest
p47
aVpinch
p48
aVroadblock
p49
aVbrutish
p50
aVrelentlessli
p51
aVrusti
p52
aVoverdo
p53
aVhord
p54
aVconstern
p55
aVnaiv
p56
aVdogmat
p57
aVenfeebl
p58
aVlouder
p59
aVbedlamit
p60
aVblasphemi
p61
aVoverdu
p62
aVploy
p63
aVmonster
p64
aVpander
p65
aVdecri
p66
aVwreck
p67
aVruthless
p68
aVneg
p69
aVpoison
p70
aVbackach
p71
aVgawki
p72
aVsunder
p73
aVblur
p74
aVugliest
p75
aVblackmail
p76
aVsuccumb
p77
aVhazi
p78
aVstern
p79
aVavers
p80
aVprate
p81
aVdeadbeat
p82
aVbullyingli
p83
aVsmuttiest
p84
aVshriek
p85
aVmordant
p86
aVunjustifi
p87
aVhiliari
p88
aVdeterior
p89
aVslow
p90
aVspotti
p91
aVharass
p92
aVsmoke
p93
aVfumbl
p94
aVupbraid
p95
aVanarchist
p96
aVmenial
p97
aVcontroversi
p98
aVaveng
p99
aVimmin
p100
aVloveless
p101
aVstink
p102
aVblockag
p103
aVshort-liv
p104
aVnightmarish
p105
aVinstabl
p106
aVspooki
p107
aVangrili
p108
aVscarier
p109
aVinsubstanti
p110
aVplot
p111
aVoverheat
p112
aVleaki
p113
aVagonizingli
p114
aVinsult
p115
aVlorn
p116
aVretali
p117
aVstrike
p118
aVextravag
p119
aVimperialist
p120
aVgriev
p121
aVblather
p122
aVbombast
p123
aVfrenzi
p124
aVwarp
p125
aVhurt
p126
aVgrief
p127
aVmushi
p128
aVsting
p129
aVqualm
p130
aVcounter-product
p131
aVsnarki
p132
aVphoni
p133
aVoverrun
p134
aVconfound
p135
aVpride
p136
aVinsignific
p137
aVerr
p138
aVneglig
p139
aVspill
p140
aVsomber
p141
aVworn
p142
aVramshackl
p143
aVwors
p144
aVrefut
p145
aVcostli
p146
aVsmolder
p147
aVobliqu
p148
aVquarrel
p149
aVdishearteningli
p150
aVwane
p151
aVdeadweight
p152
aVpunk
p153
aVindig
p154
aVheartless
p155
aVimpair
p156
aVmalign
p157
aVinadvis
p158
aVmalcont
p159
aVhog
p160
aVbloodsh
p161
aVscari
p162
aVbunk
p163
aVfaulti
p164
aVvagrant
p165
aVconfin
p166
aVscrambl
p167
aVmoron
p168
aVagoni
p169
aVshirker
p170
aVdebaucheri
p171
aVcollaps
p172
aVfever
p173
aVdisson
p174
aVwrath
p175
aVirration
p176
aVpokey
p177
aVfamish
p178
aVlag
p179
aVvicious
p180
aVpimpl
p181
aVbadli
p182
aVwrong
p183
aVegot
p184
aVendang
p185
aVmisfit
p186
aVdomin
p187
aVunlicens
p188
aVobsolet
p189
aVrevolt
p190
aVneglect
p191
aVinsuffer
p192
aVfoolhardi
p193
aVmania
p194
aVdisinclin
p195
aVwinc
p196
aVlongingli
p197
aVgreed
p198
aVintimidatingli
p199
aVsickli
p200
aVhegemon
p201
aVheavy-hand
p202
aVdeform
p203
aVill-usag
p204
aVcrumbl
p205
aVfiendish
p206
aVfall
p207
aVirreform
p208
aVsurrend
p209
aVcarnag
p210
aVwrought
p211
aVundid
p212
aVoveremphas
p213
aVunforeseen
p214
aVlengthi
p215
aVstrang
p216
aVfib
p217
aVpricier
p218
aVcomplex
p219
aVwickedli
p220
aVhypocrisi
p221
aVbelittl
p222
aVdenigr
p223
aVbemus
p224
aVinconsider
p225
aVundercut
p226
aVgrievous
p227
aVfragment
p228
aVill-treat
p229
aVirretriev
p230
aVbane
p231
aVunobserv
p232
aVinterrupt
p233
aVwedg
p234
aVrumour
p235
aVdamnat
p236
aVarrog
p237
aVdehuman
p238
aVmistrust
p239
aVundermin
p240
aVincauti
p241
aVshambl
p242
aVrocki
p243
aVpitiabl
p244
aVshadowi
p245
aVmalais
p246
aVmean
p247
aVprohibit
p248
aVexpuls
p249
aVunapp
p250
aVarduou
p251
aVoppos
p252
aVcombust
p253
aVcaustic
p254
aVoverbearingli
p255
aVescapad
p256
aVinsincer
p257
aVwhip
p258
aVfragil
p259
aVcontend
p260
aVdodgey
p261
aVitch
p262
aVfraught
p263
aVvirul
p264
aVdebil
p265
aVcontent
p266
aVdisloyalti
p267
aVill-design
p268
aVimproprieti
p269
aVhothous
p270
aVunimagin
p271
aVlanguish
p272
aVsluggish
p273
aVoutburst
p274
aVimpract
p275
aVunwarr
p276
aVdisorgan
p277
aVrail
p278
aVnightmar
p279
aVlawless
p280
aValarmingli
p281
aVgreasi
p282
aVdodder
p283
aVbitingli
p284
aVuntruth
p285
aV2-face
p286
aVentrap
p287
aVfret
p288
aVallerg
p289
aVanti-u
p290
aVpuzzl
p291
aVmaniac
p292
aVhaywir
p293
aVwarlik
p294
aVsaggi
p295
aVheck
p296
aVhopeless
p297
aVmisconcept
p298
aVsickeningli
p299
aVregress
p300
aVconfus
p301
aVthankless
p302
aVrabid
p303
aVtortuou
p304
aVinexperi
p305
aVsmugli
p306
aVwast
p307
aVbombard
p308
aVlaggi
p309
aVunlik
p310
aVdownheartedli
p311
aVsober
p312
aVcomic
p313
aVquibbl
p314
aVuncollect
p315
aVdeclaim
p316
aVcheerless
p317
aVwildli
p318
aViniqu
p319
aVtangl
p320
aVdownsid
p321
aVsarcast
p322
aVimmodest
p323
aVoveract
p324
aVundepend
p325
aVbrainwash
p326
aVbitter
p327
aVlovelorn
p328
aVmurder
p329
aVindiscreet
p330
aVflimflam
p331
aVobnoxi
p332
aVoddest
p333
aVpaltri
p334
aVhaughtili
p335
aVconserv
p336
aVpeculiar
p337
aVrebuff
p338
aVperil
p339
aVsilli
p340
aVaffront
p341
aVcoward
p342
aVthumb-down
p343
aVself-def
p344
aVmartyrdom
p345
aVunbear
p346
aVanxieti
p347
aVguilt
p348
aVcruelli
p349
aViron
p350
aVirreconcil
p351
aVdevious
p352
aVadmonit
p353
aVunprepar
p354
aVsolemn
p355
aVrag
p356
aVscrewi
p357
aVcontenti
p358
aVfathomless
p359
aVpass
p360
aVtaint
p361
aVpessimist
p362
aVdisparag
p363
aVimpenit
p364
aVinfring
p365
aVprotract
p366
aVincompat
p367
aVincompar
p368
aVspade
p369
aVmortifi
p370
aVdefiantli
p371
aVunresolv
p372
aVuncouth
p373
aVgripe
p374
aVclunki
p375
aVirasc
p376
aVpunish
p377
aVsnob
p378
aVpicki
p379
aVcrippl
p380
aVtoxic
p381
aVobject
p382
aVchatterbox
p383
aVaddict
p384
aVfluster
p385
aVdrought
p386
aVunorthodox
p387
aVgrave
p388
aVpeevish
p389
aVexcus
p390
aVunexplain
p391
aVunpleas
p392
aValarm
p393
aVobtus
p394
aVdog
p395
aVcrowd
p396
aVfussi
p397
aVbesieg
p398
aVdisaffect
p399
aVtens
p400
aVdetriment
p401
aVoppress
p402
aVapocalypt
p403
aVprik
p404
aVwhimper
p405
aVbomb
p406
aVimpolit
p407
aVopposit
p408
aVheinou
p409
aVcheapli
p410
aVunreach
p411
aVinarticul
p412
aVlurch
p413
aVdupe
p414
aVstringent
p415
aVqueer
p416
aVlethal
p417
aVjunkyard
p418
aVdie-hard
p419
aVthumbs-down
p420
aVhasti
p421
aVdespis
p422
aVdismayingli
p423
aVfoolishli
p424
aVnightmarishli
p425
aVunsatisfactori
p426
aVhaze
p427
aVbust
p428
aVdreari
p429
aVfinagl
p430
aVsecond-ti
p431
aVdisgust
p432
aVhoard
p433
aVsieg
p434
aVinaptitud
p435
aVmeddl
p436
aVdisoobedi
p437
aVnasti
p438
aVsmut
p439
aVultimatum
p440
aVsmug
p441
aVover-valu
p442
aVunproven
p443
aVeviscer
p444
aVbad
p445
aVerupt
p446
aVineffectu
p447
aVsteal
p448
aVstammer
p449
aVunexpectedli
p450
aVimpun
p451
aVdisaster
p452
aVmisdirect
p453
aVimpud
p454
aVspookiest
p455
aVelimin
p456
aVinapt
p457
aVresist
p458
aVscourg
p459
aVunworthi
p460
aVgallingli
p461
aVcommiser
p462
aVimpur
p463
aVbonker
p464
aVunlament
p465
aVsmutti
p466
aVgrumbl
p467
aVscrap
p468
aVunaccustom
p469
aVskimpi
p470
aVirk
p471
aVatroc
p472
aVremors
p473
aVsloooow
p474
aVire
p475
aVinabl
p476
aVinfidel
p477
aVmudsling
p478
aVweak
p479
aVcontort
p480
aVlazi
p481
aVintox
p482
aVfeloni
p483
aVdebt
p484
aVnuisanc
p485
aVweari
p486
aVunfound
p487
aVaccident
p488
aVirregular
p489
aVdisdain
p490
aVfault
p491
aVill
p492
aVunemploy
p493
aVmisguid
p494
aVpiti
p495
aVdisorderli
p496
aVmisunderstand
p497
aVfutil
p498
aVcon
p499
aVtough
p500
aVimpiou
p501
aVlowli
p502
aVfreakish
p503
aVvain
p504
aVguil
p505
aVinfirm
p506
aVliabil
p507
aVdegener
p508
aVglibli
p509
aVjobless
p510
aVbewilder
p511
aVnonsens
p512
aVfri
p513
aVteasingli
p514
aVconvolut
p515
aVweirdli
p516
aVpetti
p517
aVtrickeri
p518
aVdissatisfact
p519
aVadvers
p520
aVfoulli
p521
aVassult
p522
aVhesit
p523
aVdistast
p524
aVplebeian
p525
aVdizz
p526
aVpri
p527
aVdismiss
p528
aVjeeringli
p529
aVdecrepit
p530
aVmonstrou
p531
aVimbroglio
p532
aVmartyrdom-seek
p533
aVbeastli
p534
aVsloow
p535
aVhard-hit
p536
aVsabotag
p537
aVtacki
p538
aVcunt
p539
aVchill
p540
aVugli
p541
aVinhibit
p542
aVtank
p543
aVstrangest
p544
aVail
p545
aVgritti
p546
aVabrupt
p547
aVsli
p548
aVthrash
p549
aVvagu
p550
aVmoan
p551
aVdirtbag
p552
aVfuriou
p553
aVdizzi
p554
aVtin-i
p555
aVbellicos
p556
aVdisprov
p557
aVshame
p558
aVhardlin
p559
aVtediou
p560
aVsever
p561
aVanti-semit
p562
aVaggriv
p563
aVgrowl
p564
aVsap
p565
aVworthlessli
p566
aVincorrectli
p567
aVwound
p568
aVviolat
p569
aVhaphazard
p570
aVdrawback
p571
aVdrop-out
p572
aVsplit
p573
aVfuss
p574
aVimplod
p575
aVswell
p576
aVhang
p577
aVevil
p578
aVplasticki
p579
aVunqualifi
p580
aVjealous
p581
aVmoodi
p582
aVovers
p583
aVhaggard
p584
aVdecrepitud
p585
aVundesir
p586
aVbewar
p587
aVdrip
p588
aVpoorer
p589
aVsugarco
p590
aVsubpoena
p591
aVdamnabl
p592
aVill-fat
p593
aVagon
p594
aVpittanc
p595
aVindign
p596
aVflirt
p597
aVforsaken
p598
aVbeset
p599
aVvictim
p600
aVgullibl
p601
aVplight
p602
aVunten
p603
aVinterfer
p604
aVdeterr
p605
aVprattl
p606
aVrumor
p607
aVtaboo
p608
aVprison
p609
aVfalter
p610
aVunthink
p611
aVperfunctori
p612
aVvaniti
p613
aVdrippi
p614
aVdissid
p615
aVinvoluntari
p616
aVimpossibl
p617
aVilliter
p618
aVretreat
p619
aVscrew
p620
aVobstin
p621
aVglitch
p622
aVcontradict
p623
aVarbitrari
p624
aVdishonest
p625
aVunstabl
p626
aVdebilit
p627
aVspoon-fe
p628
aVhung
p629
aVunnecessari
p630
aVdelinqu
p631
aVunconvinc
p632
aVeyesor
p633
aVsquander
p634
aVdisori
p635
aVnegat
p636
aVharangu
p637
aVdeaf
p638
aVdead
p639
aVaccost
p640
aVrile
p641
aVfearsom
p642
aVprick
p643
aVbore
p644
aVsardon
p645
aVimpieti
p646
aVcreep
p647
aVrepudi
p648
aVinsensit
p649
aVinhuman
p650
aVdisillus
p651
aVfoe
p652
aVsubdu
p653
aVinadver
p654
aVconced
p655
aVpeel
p656
aVpratfal
p657
aVconcen
p658
aVinsecur
p659
aVburn
p660
aVcaricatur
p661
aVunreason
p662
aVpeev
p663
aVchafe
p664
aVincompli
p665
aVcensur
p666
aVchaff
p667
aVtroubl
p668
aVlackey
p669
aVinnuendo
p670
aVboister
p671
aVchoke
p672
aVcontamin
p673
aVfat-cat
p674
aVocclud
p675
aVdespair
p676
aVcoars
p677
aVblabber
p678
aVunrespons
p679
aVabus
p680
aVmishandl
p681
aVdiscont
p682
aVdilemma
p683
aVfroze
p684
aVexhort
p685
aVcontriv
p686
aVlier
p687
aVdisgustedli
p688
aVunwelcom
p689
aVhegemoni
p690
aVdeploringli
p691
aVanimos
p692
aVlewd
p693
aVdebacl
p694
aVvengeanc
p695
aVinoper
p696
aVfabric
p697
aVfrustrat
p698
aVfractiou
p699
aVprejudg
p700
aVstuck
p701
aVwayward
p702
aVhothead
p703
aVovershadow
p704
aVjealousi
p705
aVlurid
p706
aVshrilli
p707
aVheadach
p708
aVdisord
p709
aVforc
p710
aVenvious
p711
aVforg
p712
aVdump
p713
aVmisinform
p714
aVinsidi
p715
aVglaringli
p716
aVrattl
p717
aVretic
p718
aVpanicki
p719
aVanem
p720
aVdownbeat
p721
aVinaccur
p722
aVpest
p723
aVabsenc
p724
aVfundament
p725
aVunrel
p726
aVpropaganda
p727
aVpenal
p728
aVrogu
p729
aVinordin
p730
aVimpoverish
p731
aVnebul
p732
aVwrangl
p733
aVwretched
p734
aVdesicc
p735
aVfuri
p736
aVbristl
p737
aVinact
p738
aVshit
p739
aVgraft
p740
aVleer
p741
aVill-defin
p742
aVdisaccord
p743
aVtardi
p744
aVblatantli
p745
aVmaledict
p746
aVstagnant
p747
aVheartbreakingli
p748
aVtumbl
p749
aVunwilling
p750
aVsmell
p751
aVscorchingli
p752
aVfruitlessli
p753
aVhandicap
p754
aVgeezer
p755
aVscratchi
p756
aVtouchi
p757
aVfell
p758
aVimping
p759
aVturbul
p760
aVwarn
p761
aVfaze
p762
aVtestili
p763
aVhardhead
p764
aVrough
p765
aVcheater
p766
aVignor
p767
aVserious
p768
aVbackward
p769
aVquandari
p770
aVsubvert
p771
aVshimmi
p772
aVdispirit
p773
aVadamantli
p774
aVdebauch
p775
aVwari
p776
aVinelig
p777
aVrecoil
p778
aVstumbl
p779
aVdisconsol
p780
aVdeprav
p781
aVinexpi
p782
aVdestain
p783
aVrot
p784
aVbewild
p785
aVmisread
p786
aVuneven
p787
aVflounder
p788
aVuncar
p789
aVaggriev
p790
aVgutless
p791
aVdeject
p792
aVquash
p793
aVterror
p794
aVpersecut
p795
aVoversight
p796
aVundon
p797
aVgloomi
p798
aVcongest
p799
aVimpend
p800
aVunfamiliar
p801
aVunders
p802
aVmourn
p803
aVemascul
p804
aVblast
p805
aVunwork
p806
aVsloppi
p807
aVdim
p808
aVdin
p809
aVdie
p810
aVuncomfi
p811
aVshortcom
p812
aVunsupport
p813
aVencroach
p814
aVsteepli
p815
aVcloudi
p816
aVsmuttier
p817
aVwanton
p818
aVslower
p819
aVregret
p820
aVscarciti
p821
aVlacon
p822
aVsidetrack
p823
aVbondag
p824
aVasham
p825
aVlividli
p826
aVinjuri
p827
aVhelpless
p828
aVsneakili
p829
aVmolest
p830
aVprecipit
p831
aVservitud
p832
aVbackwood
p833
aVdishonestli
p834
aVhavoc
p835
aVheret
p836
aVhairloss
p837
aVsuspect
p838
aVmuscle-flex
p839
aVdrunkard
p840
aVjeopardi
p841
aVsuppress
p842
aVderis
p843
aVdefici
p844
aVtaut
p845
aVabscond
p846
aVoversimplifi
p847
aVgawk
p848
aVegregi
p849
aVdisclaim
p850
aVdetest
p851
aVfractious
p852
aVuncompetit
p853
aVderid
p854
aVdeceit
p855
aVdeceiv
p856
aVinvoluntarili
p857
aVloathli
p858
aVunkind
p859
aVinvis
p860
aVdisservic
p861
aVinsan
p862
aVmortif
p863
aVboast
p864
aVingratitud
p865
aVplotter
p866
aVdisavow
p867
aVdusti
p868
aVextrem
p869
aVself-serv
p870
aVfrustratingli
p871
aVguilti
p872
aVstew
p873
aVpreposter
p874
aVbriberi
p875
aVsnobish
p876
aVinfract
p877
aVmadman
p878
aVstingi
p879
aVsinisterli
p880
aVunfund
p881
aVexasper
p882
aVfake
p883
aVdiscontentedli
p884
aVpeculiarli
p885
aVbogu
p886
aVirragular
p887
aVflareup
p888
aVparalyz
p889
aVsubvers
p890
aVslowww
p891
aVangri
p892
aVswagger
p893
aVsemi-retard
p894
aVonslaught
p895
aVwicked
p896
aVdismay
p897
aVsanctimoni
p898
aVjealou
p899
aVblotchi
p900
aVdrown
p901
aVdismal
p902
aVjudder
p903
aVdownturn
p904
aVpessim
p905
aVdemolish
p906
aVunruli
p907
aVsuffoc
p908
aVbatti
p909
aVpretend
p910
aVpretenc
p911
aVstrain
p912
aVsour
p913
aVdegradingli
p914
aVinadequ
p915
aVimped
p916
aVpretens
p917
aVfar-fetch
p918
aVproblemat
p919
aVberat
p920
aVunderestim
p921
aVexplos
p922
aVfuck
p923
aVcritic
p924
aVabort
p925
aVgrouchi
p926
aVunfortun
p927
aVstole
p928
aVpredica
p929
aVcraze
p930
aVslowwww
p931
aVbankrupt
p932
aVinveigl
p933
aVambush
p934
aVinsolv
p935
aVdope
p936
aVhedonist
p937
aVunlucki
p938
aVmar
p939
aVrenunci
p940
aVintrud
p941
aVevildo
p942
aVfascist
p943
aVfilthi
p944
aVshockingli
p945
aVbrazen
p946
aVfascism
p947
aVdonsid
p948
aVmad
p949
aVlascivi
p950
aVdrastic
p951
aVsuck
p952
aVloophol
p953
aVbrainless
p954
aVuntru
p955
aVstress
p956
aVaimless
p957
aVunsettl
p958
aVcash-strap
p959
aVrepuls
p960
aVmisrepres
p961
aVmisbegotten
p962
aVsloooooooooooooow
p963
aVover-hyp
p964
aVsu
p965
aVnosey
p966
aVmangl
p967
aVcrept
p968
aVflat-out
p969
aVswollen
p970
aVoffend
p971
aVworryingli
p972
aVuntest
p973
aVirrat
p974
aVdrunken
p975
aVinessenti
p976
aVhorrifi
p977
aVforfeit
p978
aVinfiltr
p979
aVspookier
p980
aVsob
p981
aVfatuiti
p982
aVshake
p983
aVsmelli
p984
aVcold
p985
aVshaki
p986
aVdisconcertingli
p987
aVinsignificantli
p988
aVunsettlingli
p989
aVantipathi
p990
aVrelaps
p991
aVsuspicion
p992
aVhaughti
p993
aVmediocr
p994
aVdestabilis
p995
aVletharg
p996
aVvexingli
p997
aVdisloy
p998
aVkiller
p999
aVshatter
p1000
aVdisloc
p1001
aVneedi
p1002
aVtemer
p1003
aVloneli
p1004
aVdisappoint
p1005
aVcondescendingli
p1006
aVblure
p1007
aVbullshit
p1008
aVreluct
p1009
aVfawningli
p1010
aVfeverish
p1011
aVentangl
p1012
aVuncertain
p1013
aVfissur
p1014
aVrevert
p1015
aVcareless
p1016
aVmisbehav
p1017
aVbrimston
p1018
aVailment
p1019
aVcollud
p1020
aVwrestl
p1021
aVcollus
p1022
aVproprietari
p1023
aVsubjug
p1024
aValoof
p1025
aVworriedli
p1026
aVhysteria
p1027
aVunlaw
p1028
aVuncr
p1029
aVrampag
p1030
aVastray
p1031
aVbusybodi
p1032
aVgiddi
p1033
aVmess
p1034
aVstupid
p1035
aVtrauma
p1036
aVironi
p1037
aVstraggl
p1038
aVinadequaci
p1039
aVhastili
p1040
aVinsular
p1041
aVunfriendli
p1042
aVdumbfound
p1043
aVunyield
p1044
aVbumpi
p1045
aVcarp
p1046
aVdisrespect
p1047
aVzombi
p1048
aVplea
p1049
aVhefti
p1050
aVunpredict
p1051
aVsceptic
p1052
aVfunki
p1053
aVdesultori
p1054
aVflare
p1055
aVoutcri
p1056
aVgaff
p1057
aVpuni
p1058
aVunavoid
p1059
aVdisinterest
p1060
aVdisvalu
p1061
aVimposs
p1062
aVblind
p1063
aVclumsi
p1064
aVfeign
p1065
aVoppon
p1066
aVimplac
p1067
aVquestion
p1068
aVshortsight
p1069
aVcheesi
p1070
aVoverblown
p1071
aVtop-heavi
p1072
aVlong
p1073
aVtetchi
p1074
aVanti-
p1075
aVnoisier
p1076
aVdistraughtli
p1077
aVzap
p1078
aVaudac
p1079
aVthoughtless
p1080
aVunimport
p1081
aVbite
p1082
aVoverstat
p1083
aVfierc
p1084
aVautocrat
p1085
aVchecker
p1086
aVshiver
p1087
aVtragic
p1088
aVmisapprehend
p1089
aVpuppet
p1090
aVjutter
p1091
aVdaunt
p1092
aVmorbidli
p1093
aVmawkishli
p1094
aVhum
p1095
aVunwis
p1096
aVchintzi
p1097
aVgaudi
p1098
aVrhetor
p1099
aVcrummi
p1100
aVirrecover
p1101
aVset-up
p1102
aVincommensur
p1103
aVbewitch
p1104
aVrival
p1105
aVdefam
p1106
aVcrumpl
p1107
aVdinki
p1108
aVtawdri
p1109
aVunproduct
p1110
aVungovern
p1111
aVextinguish
p1112
aVconspiraci
p1113
aVdubit
p1114
aVbewilderingli
p1115
aVmistakenli
p1116
aVargument
p1117
aVslap
p1118
aVcrafti
p1119
aValleg
p1120
aVburdensom
p1121
aVsulk
p1122
aVanger
p1123
aVambigu
p1124
aVhardheart
p1125
aVbeggarli
p1126
aVirrepar
p1127
aVworrisom
p1128
aVlumpi
p1129
aVwretch
p1130
aVdestroy
p1131
aVcalam
p1132
aVblunt
p1133
aVincoher
p1134
aVinept
p1135
aVpain
p1136
aVruffl
p1137
aVslump
p1138
aVcapitul
p1139
aVexclus
p1140
aVassault
p1141
aVslowest
p1142
aVapocalyps
p1143
aVd*mn
p1144
aVfrig
p1145
aVpolaris
p1146
aVanti-soci
p1147
aVmiscalcul
p1148
aVpathet
p1149
aVguiltili
p1150
aVjitteri
p1151
aVblockhead
p1152
aVforlornli
p1153
aVstigmat
p1154
aVgenocid
p1155
aVscowl
p1156
aVferoc
p1157
aVbabbl
p1158
aVwatered-down
p1159
aVmonstrous
p1160
aVunsuspect
p1161
aVcheat
p1162
aVso-cal
p1163
aVcheap
p1164
aVfriction
p1165
aVhack
p1166
aVunfinish
p1167
aVhustler
p1168
aVghastli
p1169
aVslut
p1170
aVgnaw
p1171
aVincit
p1172
aVtravesti
p1173
aVincongru
p1174
aVimbal
p1175
aVdick
p1176
aVjolt
p1177
aVshimmer
p1178
aVcrime
p1179
aVstaid
p1180
aVslog
p1181
aVdespairingli
p1182
aVstormi
p1183
aVdeign
p1184
aVunravel
p1185
aVstain
p1186
aVshrill
p1187
aVoffici
p1188
aVviper
p1189
aVmistifi
p1190
aVgraceless
p1191
aVinsupport
p1192
aVstraggler
p1193
aVlitigi
p1194
aVtreacheri
p1195
aVcautionari
p1196
aVloath
p1197
aVgibber
p1198
aVculpabl
p1199
aVbeseech
p1200
aVhostil
p1201
aVintermitt
p1202
aVjoker
p1203
aVslow-mov
p1204
aVnettl
p1205
aVjunki
p1206
aVinhospit
p1207
aVworrier
p1208
aVdownfallen
p1209
aVabsurdli
p1210
aVdisquietingli
p1211
aVmenac
p1212
aVgangster
p1213
aVunfit
p1214
aVlethargi
p1215
aVstigma
p1216
aVunderpaid
p1217
aVconcern
p1218
aVmystifi
p1219
aVspoonf
p1220
aVoverdon
p1221
aVbreak-up
p1222
aVuntrustworthi
p1223
aVobliter
p1224
aVoversimplif
p1225
aVvolatil
p1226
aVhiss
p1227
aVmope
p1228
aVpitiless
p1229
aVkook
p1230
aVpettifog
p1231
aVbrutalis
p1232
aVharshli
p1233
aVinflex
p1234
aVvocifer
p1235
aVblame
p1236
aVlaid-off
p1237
aVbeguil
p1238
aVshortag
p1239
aVcomb
p1240
aVabomin
p1241
aVfaintheart
p1242
aVquack
p1243
aVsketchi
p1244
aVreluctantli
p1245
aVstupidest
p1246
aVruptur
p1247
aVimprob
p1248
aVtemper
p1249
aVinconsist
p1250
aVtout
p1251
aVgimmicki
p1252
aVdelirium
p1253
aVskittishli
p1254
aVtumultu
p1255
aVineptli
p1256
aVimportun
p1257
aVimprop
p1258
aVdespond
p1259
aVjitter
p1260
aVcancer
p1261
aVunmov
p1262
aVdilly-d
p1263
aVexagger
p1264
aVexploit
p1265
aVextravagantli
p1266
aVrunaway
p1267
aVdamag
p1268
aVneedlessli
p1269
aVinan
p1270
aVcraftli
p1271
aVtramp
p1272
aVineleg
p1273
aVjerki
p1274
aVlayoff-happi
p1275
aVsuicid
p1276
aVlame-duck
p1277
aVmenacingli
p1278
aVscoldingli
p1279
aVsqueaki
p1280
aVimpugn
p1281
aVsalaci
p1282
aVdevilish
p1283
aVsuscept
p1284
aVsquash
p1285
aVemphat
p1286
aVcatastroph
p1287
aVunfavor
p1288
aVultra-hardlin
p1289
aVdiappoint
p1290
aVimpati
p1291
aVunorthodoxi
p1292
aVnotorieti
p1293
aVscath
p1294
aVpedant
p1295
aVflabbergast
p1296
aVstereotyp
p1297
aVimperi
p1298
aVtrick
p1299
aVweaken
p1300
aVquitter
p1301
aVscum
p1302
aVmargin
p1303
aVscarili
p1304
aVhuckster
p1305
aVsillili
p1306
aVsub-par
p1307
aVself-interest
p1308
aVdubious
p1309
aVblah
p1310
aVbias
p1311
aVeras
p1312
aVbestial
p1313
aVoutrag
p1314
aVrecours
p1315
aVblab
p1316
aVimmoder
p1317
aVfatalist
p1318
aVharsh
p1319
aVasininin
p1320
aVheartbreak
p1321
aVsucker
p1322
aVsticki
p1323
aVpan
p1324
aVbreakdown
p1325
aVexhaust
p1326
aVstingingli
p1327
aVcallou
p1328
aVlambast
p1329
aVdevoid
p1330
aVinfuriatingli
p1331
aVadmonishingli
p1332
aVparadox
p1333
aVdisown
p1334
aVweep
p1335
aVstarvat
p1336
aVbreak
p1337
aVdrain
p1338
aVgrumpi
p1339
aVfloor
p1340
aVparodi
p1341
aVtrape
p1342
aVdemean
p1343
aVgrappl
p1344
aVflakey
p1345
aVviciou
p1346
aVsatir
p1347
aVclog
p1348
aVfume
p1349
aVdisconcert
p1350
aVslime
p1351
aVpayback
p1352
aVviolent
p1353
aVpariah
p1354
aVkill
p1355
aVdiffid
p1356
aVundocu
p1357
aVlaughabl
p1358
aVexacerb
p1359
aVblow
p1360
aVindulg
p1361
aVdeath
p1362
aVclueless
p1363
aVmiscellan
p1364
aVsenseless
p1365
aVbullshyt
p1366
aVharrow
p1367
aVnettlesom
p1368
aVsmother
p1369
aVleft-lean
p1370
aVirrespons
p1371
aVnotori
p1372
aVstruck
p1373
aVdisrupt
p1374
aVcomplicit
p1375
aVfrown
p1376
aVgloom
p1377
aVdark
p1378
aVretract
p1379
aVsnarl
p1380
aVdeplet
p1381
aVspank
p1382
aVdetract
p1383
aVstunt
p1384
aVsnare
p1385
aVwashed-out
p1386
aVgrim
p1387
aVapathet
p1388
aVhalfheartedli
p1389
aVcronyism
p1390
aVcravenli
p1391
aVsneer
p1392
aVtreacher
p1393
aVmalodor
p1394
aVfeckless
p1395
aVenerv
p1396
aVsubstandard
p1397
aVoddli
p1398
aVobstruct
p1399
aVmalevol
p1400
aVfalsehood
p1401
aVfeeblemind
p1402
aVafflict
p1403
aVanomal
p1404
aVunpleasantri
p1405
aVpointlessli
p1406
aVfanat
p1407
aVgross
p1408
aVsquirm
p1409
aVfarcic
p1410
aVdouchebag
p1411
aVruthlessli
p1412
aVexil
p1413
aVunfulfil
p1414
aVmacabr
p1415
aVintract
p1416
aVlunat
p1417
aVcrueler
p1418
aVulterior
p1419
aVunbeliev
p1420
aVdauntingli
p1421
aVcomplic
p1422
aVsquabbl
p1423
aVfusti
p1424
aVuneas
p1425
aVuneasi
p1426
aVdastardli
p1427
aVracism
p1428
aVlacklust
p1429
aVsadden
p1430
aVthrob
p1431
aVgarbag
p1432
aVfinicki
p1433
aVslaughter
p1434
aVbroken
p1435
aVdictatori
p1436
aVbravado
p1437
aVhectic
p1438
aVdevilri
p1439
aVstandstil
p1440
aVcontagi
p1441
aVzealous
p1442
aVsmear
p1443
aVjeer
p1444
aVach
p1445
aVnastili
p1446
aVfallaci
p1447
aVcring
p1448
aVintens
p1449
aVknave
p1450
aVassassin
p1451
aVbraggart
p1452
aVunfaith
p1453
aVlatenc
p1454
aVindol
p1455
aVacridli
p1456
aVaskanc
p1457
aVtotalitarian
p1458
aVbrute
p1459
aVemaci
p1460
aVmadder
p1461
aVmindless
p1462
aVracist
p1463
aVfrazzl
p1464
aVstrictli
p1465
aVdowner
p1466
aVoverpaid
p1467
aVgibe
p1468
aVlong-wind
p1469
aVfanatic
p1470
aVuproari
p1471
aVconcess
p1472
aVhardbal
p1473
aVpunit
p1474
aVdisobedi
p1475
aVplagu
p1476
aVbaffl
p1477
aVmonoton
p1478
aVbull****
p1479
aVillus
p1480
aVmuddi
p1481
aVinopportun
p1482
aVludicr
p1483
aVdesititut
p1484
aVfraud
p1485
aVdirti
p1486
aVrage
p1487
aVsleazi
p1488
aVdisrespectabl
p1489
aVgrumpili
p1490
aVoverpay
p1491
aVeschew
p1492
aVgrouch
p1493
aVgibberish
p1494
aVdeadlock
p1495
aVpowerless
p1496
aVrust
p1497
aVdarker
p1498
aVruffian
p1499
aVinflict
p1500
aVfright
p1501
aVspendi
p1502
aVfrighten
p1503
aVfugit
p1504
aVcasualti
p1505
aVantagon
p1506
aVsmokescreen
p1507
aVaw
p1508
aVstiflingli
p1509
aVcreak
p1510
aVincorrect
p1511
aVabyss
p1512
aVidiot
p1513
aVstarkli
p1514
aVforsak
p1515
aVabolish
p1516
aVtetchili
p1517
aVheathen
p1518
aVfriggin
p1519
aVselfishli
p1520
aVincomprehens
p1521
aVabysm
p1522
aVfruitless
p1523
aVhindranc
p1524
aVauthoritarian
p1525
aVdiscourt
p1526
aVdepress
p1527
aVinconsol
p1528
aVfetid
p1529
aVsulli
p1530
aVoverreach
p1531
aVmidget
p1532
aVinsati
p1533
aVstreaki
p1534
aVdownfal
p1535
aVuglier
p1536
aVpugnac
p1537
aVmash
p1538
aVeccentr
p1539
aVinevit
p1540
aVmaltreat
p1541
aVforswear
p1542
aVmourner
p1543
aVgod-aw
p1544
aVdegrad
p1545
aVdiss
p1546
aVliar
p1547
aVforget
p1548
aVvile
p1549
aVmessi
p1550
aVforbidden
p1551
aVlack
p1552
aVscandel
p1553
aVenslav
p1554
aVsunk
p1555
aVavaric
p1556
aVpervers
p1557
aVallergi
p1558
aVruinou
p1559
aVfranticli
p1560
aVinconceiv
p1561
aVindiscern
p1562
aVcatastrophi
p1563
aVincap
p1564
aVinim
p1565
aVinaud
p1566
aVhumili
p1567
aVcrappi
p1568
aVhideous
p1569
aVtatter
p1570
aVwoman
p1571
aVwoebegon
p1572
aVfals
p1573
aVfat
p1574
aVunwil
p1575
aVhypocrit
p1576
aVworst
p1577
aVfailur
p1578
aVgainsay
p1579
aVunev
p1580
aVharri
p1581
aVsenselessli
p1582
aVterror-gen
p1583
aVacerb
p1584
aVself-humili
p1585
aVdamper
p1586
aVsmudg
p1587
aVhallucin
p1588
aVlecheri
p1589
aVbid-rig
p1590
aVstagnat
p1591
aVfustig
p1592
aVeffigi
p1593
aVhoax
p1594
aVdisapoint
p1595
aVoutmod
p1596
aVinexcus
p1597
aVenjoin
p1598
aVmisrepresent
p1599
aVhamper
p1600
aVdizzingli
p1601
aVill-conceiv
p1602
aVsue
p1603
aVsuperfici
p1604
aVincredul
p1605
aVstoog
p1606
aVskeptic
p1607
aVtraduc
p1608
aVrascal
p1609
aVfalsifi
p1610
aVoverload
p1611
aVcrush
p1612
aVdispleas
p1613
aVwretchedli
p1614
aVmusti
p1615
aVturmoil
p1616
aVcannib
p1617
aVtiringli
p1618
aVtragedi
p1619
aVsuspici
p1620
aVharridan
p1621
aVuntim
p1622
aVomiss
p1623
aVexcess
p1624
aVhast
p1625
aVspoon-f
p1626
aVineffici
p1627
aVtwo-fac
p1628
aVirat
p1629
aVwhini
p1630
aVstupor
p1631
aVmisinterpret
p1632
aVinattent
p1633
aVmiseri
p1634
aVindetermin
p1635
aVhalfheart
p1636
aVbrutal
p1637
aVupsettingli
p1638
aVsnappish
p1639
aVenmiti
p1640
aVnarrow
p1641
aVcreepi
p1642
aVchunki
p1643
aVunconstitut
p1644
aVdeclin
p1645
aVprimit
p1646
aVfatuous
p1647
aVbungl
p1648
aVdeprec
p1649
aVinappropri
p1650
aVvex
p1651
aVsnub
p1652
aVdemis
p1653
aVcowardli
p1654
aVdecrement
p1655
aVcoercion
p1656
aVmistress
p1657
aVsolicitud
p1658
aVaggress
p1659
aVdissembl
p1660
aVbicker
p1661
aVbrusqu
p1662
aVreproach
p1663
aVfaint
p1664
aVbizarr
p1665
aVviru
p1666
aVuncompromis
p1667
aVnauseat
p1668
aVfuror
p1669
aVuncoop
p1670
aVflaw
p1671
aVgrisli
p1672
aVlousi
p1673
aVwrith
p1674
aVmire
p1675
aVstupifi
p1676
aVstutter
p1677
aVflag
p1678
aVspoill
p1679
aVworri
p1680
aVbroke
p1681
aVoblivi
p1682
aVdisfavor
p1683
aVdoom
p1684
aVdissonantli
p1685
aVflak
p1686
aVmeddlesom
p1687
aVabras
p1688
aVdictat
p1689
aVfatal
p1690
aVpernici
p1691
aVdisapprob
p1692
aVunconfirm
p1693
aVsucki
p1694
aVabrad
p1695
aVsmelt
p1696
aVunderl
p1697
aVdisapprov
p1698
aVexplod
p1699
aVstubborn
p1700
aVshark
p1701
aVirret
p1702
aVscam
p1703
aVgrumpish
p1704
aVgrievanc
p1705
aVignobl
p1706
aVchalleng
p1707
aVjeopard
p1708
aVboycott
p1709
aVwrip
p1710
aVunreli
p1711
aVdespot
p1712
aVscar
p1713
aVcondemn
p1714
aVinescap
p1715
aVjerk
p1716
aVawkward
p1717
aVomin
p1718
aVanxiou
p1719
aVexhorbit
p1720
aVgoad
p1721
aVdivis
p1722
aVweed
p1723
aVreject
p1724
aVacrimoni
p1725
aVodder
p1726
aVunabl
p1727
aVidioci
p1728
aVstartl
p1729
aVrude
p1730
aVsneak
p1731
aVill-temp
p1732
aVunsound
p1733
aVundecid
p1734
aVlanki
p1735
aVnumb
p1736
aVinflationari
p1737
aVgasp
p1738
aVhubri
p1739
aVpreoccupi
p1740
aVbleak
p1741
aVcoerciv
p1742
aVshort
p1743
aVcrowded
p1744
aVcaprici
p1745
aVrremedi
p1746
aVhelplessli
p1747
aVblunder
p1748
aVgroundless
p1749
aVopportunist
p1750
aVimpetu
p1751
aVdread
p1752
aVfatuou
p1753
aVshadi
p1754
aVupheav
p1755
aVlewdli
p1756
aVstalem
p1757
aVerod
p1758
aVsetback
p1759
aVpervas
p1760
aVunseemli
p1761
aVflaunt
p1762
aVincessantli
p1763
aVhell
p1764
aVsuffer
p1765
aVannoyingli
p1766
aVeros
p1767
aVobscen
p1768
aVless-develop
p1769
aVmobster
p1770
aVdisun
p1771
aVsoapi
p1772
aVshun
p1773
aVlicenti
p1774
aVrepugnantli
p1775
aVclamor
p1776
aVpropagand
p1777
aVbereft
p1778
aVfool
p1779
aVgoof
p1780
aVunprofit
p1781
aVmotley
p1782
aVgoon
p1783
aVpollut
p1784
aVshemal
p1785
aVimperil
p1786
aVvomit
p1787
aVfrigid
p1788
aVoutbreak
p1789
aVuninform
p1790
aVcomplain
p1791
aVrestrict
p1792
aVgoofi
p1793
aVdisquietud
p1794
aVrant
p1795
aVrenounc
p1796
aVstiff
p1797
aVpredatori
p1798
aVmysteri
p1799
aVnaughti
p1800
aVoverr
p1801
aVteas
p1802
aVlast-ditch
p1803
aVexecr
p1804
aVunhealthi
p1805
aVharm
p1806
aVshock
p1807
aVrestless
p1808
aVneedless
p1809
aVunilater
p1810
aVunequ
p1811
aVhard
p1812
aVanarchi
p1813
aVfractur
p1814
aVexorbitant
p1815
aVfist
p1816
aVindistinguish
p1817
aVslave
p1818
aVtroublemak
p1819
aVscrew-up
p1820
aVanxious
p1821
aVdejectedli
p1822
aVmiss
p1823
aVchildish
p1824
aVsnappishli
p1825
aVdisquiet
p1826
aVunaccess
p1827
aVshrivel
p1828
aVexcori
p1829
aVdifficulti
p1830
aVbungler
p1831
aVmonotoni
p1832
aVdirt
p1833
aVdunc
p1834
aVdissoci
p1835
aVbedlam
p1836
aVselfinterest
p1837
aVhigh-pric
p1838
aVwobbl
p1839
aVbulli
p1840
aVdire
p1841
aVhapless
p1842
aVdeviou
p1843
aVbash
p1844
aVblister
p1845
aVprecari
p1846
aVanarch
p1847
aVstrut
p1848
aVineptitud
p1849
aVstruggl
p1850
aVdevilishli
p1851
aVbragger
p1852
aVhassel
p1853
aVsarcasm
p1854
aVprejudici
p1855
aVfallen
p1856
aVbrazenli
p1857
aVding
p1858
aVintimid
p1859
aVperturb
p1860
aVmockeri
p1861
aVbarbarian
p1862
aVdissatisfi
p1863
aVpretenti
p1864
aVbland
p1865
aVhorribl
p1866
aVwrest
p1867
aVfiction
p1868
aVjabber
p1869
aVdefi
p1870
aVfanci
p1871
aVconspiratori
p1872
aVflimsi
p1873
aVsymptom
p1874
aVnon-confid
p1875
aVdiscompos
p1876
aVswipe
p1877
aVdoomsday
p1878
aVzealou
p1879
aVzealot
p1880
aVhotb
p1881
aVilleg
p1882
aVmercilessli
p1883
aVsecond-class
p1884
aVdisagr
p1885
aVunprov
p1886
aVmerciless
p1887
aVdepressingli
p1888
aVimperfect
p1889
aVcommonplac
p1890
aVchao
p1891
aVsensation
p1892
aVanti-occup
p1893
aVunview
p1894
aVboredom
p1895
aVuneconom
p1896
aVrampant
p1897
aVinsubordin
p1898
aVsimplist
p1899
aVcontrari
p1900
aVlament
p1901
aVrollercoast
p1902
aVsuperstiti
p1903
aVsti
p1904
aVriski
p1905
aVnoxiou
p1906
aVstall
p1907
aVsavageri
p1908
aVpostur
p1909
aVstale
p1910
aVrandomli
p1911
aVphobic
p1912
aVphobia
p1913
aVdefect
p1914
aVcuplrit
p1915
aVexpir
p1916
aVshortchang
p1917
aVill-mann
p1918
aVfulmin
p1919
aVmeltdown
p1920
aVmawkish
p1921
aVfreakishli
p1922
aVlie
p1923
aVtarnish
p1924
aVcave
p1925
aVtroublesom
p1926
aVtempest
p1927
aVhopelessli
p1928
aVuseless
p1929
aVfrail
p1930
aVinvect
p1931
aVhell-bent
p1932
aVrubbish
p1933
aVmiserli
p1934
aVtemptat
p1935
aVindecis
p1936
aVdisreput
p1937
aVplunder
p1938
aVover-pr
p1939
aVunpopular
p1940
aVback-log
p1941
aVfarcical-yet-provoc
p1942
aVsmoulder
p1943
aVcovet
p1944
aVfaithless
p1945
aVunwel
p1946
aVabnorm
p1947
aVun-view
p1948
aVlife-threaten
p1949
aVbarren
p1950
aVprofan
p1951
aVfidget
p1952
aVugh
p1953
aVhumid
p1954
aVlanguid
p1955
aVflicker
p1956
aVaghast
p1957
aVindecorum
p1958
aVvexat
p1959
aVfelon
p1960
aVpenalti
p1961
aVunjustli
p1962
aVcoerc
p1963
aVho-hum
p1964
aVineffect
p1965
aVflighti
p1966
aVnervous
p1967
aVruin
p1968
aVdeliri
p1969
aVbetray
p1970
aVsnobbish
p1971
aVfiend
p1972
aVinconst
p1973
aVunwillingli
p1974
aVunhappi
p1975
aVexorbit
p1976
aVunspeak
p1977
aVscuff
p1978
aVequivoc
p1979
aVineloqu
p1980
aVepidem
p1981
aVobtrus
p1982
aVearsplit
p1983
aVtingl
p1984
aVcheapen
p1985
aVbatter
p1986
aVwrinkl
p1987
aVindiffer
p1988
aVdestitut
p1989
aVliabl
p1990
aVindec
p1991
aVavarici
p1992
aVingrat
p1993
aVuncomfort
p1994
aVchasten
p1995
aVunattract
p1996
aVirrevers
p1997
aVskinni
p1998
aVcommot
p1999
aVantiqu
p2000
aVenemi
p2001
aVhype
p2002
aVcri
p2003
aVoutlaw
p2004
aVbulky
p2005
aVcramp
p2006
aVstump
p2007
aVdelus
p2008
aVlow-rat
p2009
aVoverwhelm
p2010
aVjade
p2011
aVpetrifi
p2012
aVgrumpiest
p2013
aVbulki
p2014
aVdelud
p2015
aVdelug
p2016
aVdisparagingli
p2017
aVdumb
p2018
aVtroublingli
p2019
aVtender
p2020
aVdisadvantag
p2021
aVsh*t
p2022
aVaspers
p2023
aVhorrif
p2024
aVhorrid
p2025
aVblurt
p2026
aVforlorn
p2027
aVwail
p2028
aVdebat
p2029
aVback-wood
p2030
aVplagiar
p2031
aVwoe
p2032
aVdistraught
p2033
aVblindsid
p2034
aVberserk
p2035
aVegotist
p2036
aVhardship
p2037
aVdullard
p2038
aVheckl
p2039
aValterc
p2040
aVabruptli
p2041
aVdilapid
p2042
aVill-form
p2043
aVdawdl
p2044
aVinfam
p2045
aVfidgeti
p2046
aVnervou
p2047
aVerrat
p2048
aVsuperflu
p2049
aVdefunct
p2050
aVpolut
p2051
aVinsinu
p2052
aVstymi
p2053
aVgrudg
p2054
aVignomini
p2055
aVundetermin
p2056
aVspiritless
p2057
aVbuzz
p2058
aVcorrupt
p2059
aVharpi
p2060
aVshortsighted
p2061
aVcynic
p2062
aVinextric
p2063
aVsloth
p2064
aVbeli
p2065
aVdistress
p2066
aVdrunk
p2067
aVuncivil
p2068
aVirredeem
p2069
aVunrealist
p2070
aVhollow
p2071
aVfastuou
p2072
aVunafford
p2073
aVprovok
p2074
aVrave
p2075
aVdownheart
p2076
aVparal
p2077
aVacrid
p2078
aVprovoc
p2079
aVundissolv
p2080
aVworthless
p2081
aVdevil
p2082
aVfilth
p2083
aVskulk
p2084
aVmockingli
p2085
aVoverlook
p2086
aVdud
p2087
aVempti
p2088
aVmiser
p2089
aVsecret
p2090
aVdamn
p2091
aVwhine
p2092
aVthreaten
p2093
aVcompuls
p2094
aVdisingenu
p2095
aVnonexist
p2096
aVhead-ach
p2097
aVinfect
p2098
aVdropout
p2099
aVoverthrow
p2100
aVdeter
p2101
aVpricey
p2102
aVmist
p2103
aVrepetit
p2104
aVchatter
p2105
aVcruelti
p2106
aVbitchi
p2107
aVinclement
p2108
aVstolen
p2109
aVoverplay
p2110
aVfrozen
p2111
aVfleed
p2112
aVerron
p2113
aVunkindli
p2114
aVshabbi
p2115
aVinsens
p2116
aVjaundic
p2117
aVerror
p2118
aVunconvincingli
p2119
aVfleet
p2120
aVloot
p2121
aVreprehens
p2122
aVgraini
p2123
aVloos
p2124
aVfleer
p2125
aVprejudic
p2126
aVasund
p2127
aVstubbornli
p2128
aVaccurs
p2129
aVadulter
p2130
aVinexplain
p2131
aVdemon
p2132
aVrip
p2133
aVrancor
p2134
aVdemor
p2135
aVgall
p2136
aVshoddi
p2137
aVfrantic
p2138
aVanguish
p2139
aVquarrelsom
p2140
aVostrac
p2141
aVdissuad
p2142
aVcholer
p2143
aVirrelev
p2144
aVmyth
p2145
aVmadli
p2146
aVantithet
p2147
aVitchi
p2148
aVachey
p2149
aVdishonor
p2150
aVbutcher
p2151
aVfunni
p2152
aVdiscredit
p2153
aVdissuas
p2154
aVshirk
p2155
aVconflict
p2156
aVsham
p2157
aVcastrat
p2158
aVdespoil
p2159
aVuneasili
p2160
aVindiscreetli
p2161
aVoverweight
p2162
aVinflat
p2163
aVregrett
p2164
aVfatti
p2165
aVinflam
p2166
aVimpedi
p2167
aVtiresom
p2168
aVtimid
p2169
aVweird
p2170
aVmotionless
p2171
aVscummi
p2172
aVdiscourag
p2173
aVprickl
p2174
aVover-aw
p2175
aVcraven
p2176
aVgrossli
p2177
aVgrind
p2178
aVflirti
p2179
aVexpens
p2180
aVradic
p2181
aVtoil
p2182
aVrecant
p2183
aVmoribund
p2184
aVunintelligil
p2185
aVdevastatingli
p2186
aVchore
p2187
aVunrelentingli
p2188
aVcocki
p2189
aVknot
p2190
aVdishonesti
p2191
aVobscur
p2192
aVbelabor
p2193
aVthoughtlessli
p2194
aVsubservi
p2195
aVpillori
p2196
aVsacrif
p2197
aVdepriv
p2198
aVpainful
p2199
aVunsecur
p2200
aVbotch
p2201
aVdastard
p2202
aVmiscreant
p2203
aVsinist
p2204
aVsnag
p2205
aVrevok
p2206
aVill-advis
p2207
aVlimp
p2208
aVhater
p2209
aVfrenet
p2210
aVcomplaint
p2211
aVinconsequenti
p2212
aVinsol
p2213
aVbia
p2214
aVdiscombobul
p2215
aVgrievou
p2216
aVcataclysm
p2217
aVdiscriminatori
p2218
aVmaladjust
p2219
aVinsurmount
p2220
aVbruis
p2221
aVknock
p2222
aVblemish
p2223
aVstranger
p2224
aVmiff
p2225
aVmulti-polar
p2226
aVconfront
p2227
aVstrife
p2228
aVfaceti
p2229
aVuproar
p2230
aVdistrust
p2231
aVrecalcitr
p2232
aVsugar-coat
p2233
aVirksom
p2234
aVfoolish
p2235
aVtransgress
p2236
aVpillag
p2237
aVpestil
p2238
aVunintellig
p2239
aVunsuccess
p2240
aVembroil
p2241
aVfastidi
p2242
aVimpeach
p2243
aVextremist
p2244
aVurgent
p2245
aVunspecifi
p2246
aVincivil
p2247
aVdepravedli
p2248
aVscandal
p2249
aVanti-american
p2250
aVpale
p2251
aVsyndrom
p2252
aVsmallish
p2253
aVculprit
p2254
aVscali
p2255
aVunsur
p2256
aVsermon
p2257
aVslash
p2258
aVexager
p2259
aVbloodi
p2260
aVamput
p2261
aVcostlier
p2262
aVgracelessli
p2263
aVgrotesqu
p2264
aVodor
p2265
aVlose
p2266
aVpeevishli
p2267
aVrue
p2268
aVjumpi
p2269
aVdoggedli
p2270
aVsag
p2271
aVbs
p2272
aVbarbar
p2273
aVimpot
p2274
aVsubtract
p2275
aVimpos
p2276
aVrut
p2277
aVinequit
p2278
aVunsophist
p2279
aVhawkish
p2280
aVloathsom
p2281
aVyawn
p2282
aVunsustain
p2283
aVordeal
p2284
aVdiabol
p2285
aVlifeless
p2286
aVidl
p2287
aVinfuri
p2288
aVself-coup
p2289
aVmisbehavior
p2290
aVirrit
p2291
aVmisbecom
p2292
aVdispens
p2293
aVheedless
p2294
aVsavag
p2295
aVill-natur
p2296
aVatroci
p2297
aVdisturbingli
p2298
aVabsent-mind
p2299
aVpauciti
p2300
aVstench
p2301
aVsad
p2302
aVfictiti
p2303
aVinsoci
p2304
aVcalumni
p2305
aVlone
p2306
aVchide
p2307
aVirresolut
p2308
aVsneaki
p2309
aVnepot
p2310
aVimplaus
p2311
aVerrant
p2312
aVinfern
p2313
aVresurg
p2314
aVperplex
p2315
aVdwindl
p2316
aVfrost
p2317
aVdisaffirm
p2318
aVstuffi
p2319
aVoverbear
p2320
aVarchaic
p2321
aVuncontrol
p2322
aVusurp
p2323
aVnefari
p2324
aVdull
p2325
aVdiscomfit
p2326
aVdracon
p2327
aVirrepress
p2328
aVretaliatori
p2329
aVill-sort
p2330
aVfull-blown
p2331
aVslander
p2332
aVskittish
p2333
aVmalic
p2334
aVcurt
p2335
aVfreak
p2336
aVcurs
p2337
aVinsultingli
p2338
aVhaunt
p2339
aVunauthent
p2340
aVincomplet
p2341
aVfamin
p2342
aVdestruct
p2343
aVodditi
p2344
aVaggrav
p2345
aVinexpertli
p2346
aVgrimac
p2347
aVlugubri
p2348
aVblasphem
p2349
aVsullen
p2350
aVlemon
p2351
aVnag
p2352
aVsunken
p2353
aVswamp
p2354
aVobjection
p2355
aVinvalid
p2356
aVcoupist
p2357
aVdimmer
p2358
aVperfid
p2359
aVmock
p2360
aVscapegoat
p2361
aVutterli
p2362
aVfreez
p2363
aVevas
p2364
aVeffronteri
p2365
aVdrag
p2366
aVwrongli
p2367
aVunsaf
p2368
aVdrab
p2369
aVinflamm
p2370
aVdesert
p2371
aVevad
p2372
aVbeleagu
p2373
aVvice
p2374
aVinaccuraci
p2375
aVdowncast
p2376
aVbelliger
p2377
aVwearisom
p2378
aVscream
p2379
aVdiscrimin
p2380
aVgloatingli
p2381
aVmindlessli
p2382
aVresign
p2383
aVdistain
p2384
aVrigid
p2385
aVbothersom
p2386
aVpervert
p2387
aVpartial
p2388
aVegocentr
p2389
aVscratch
p2390
aValien
p2391
aVhellion
p2392
aVamiss
p2393
aVbait
p2394
aVegomania
p2395
aVridicul
p2396
aVhoodium
p2397
aVbyzantin
p2398
aVconspicu
p2399
aVbreach
p2400
aVblandish
p2401
aVblindingli
p2402
aVkaput
p2403
aVmoot
p2404
aVpassiv
p2405
aVcalamit
p2406
aVmorbid
p2407
aVdefamatori
p2408
aVvestig
p2409
aVenviou
p2410
aVirresolv
p2411
aVdisast
p2412
aVspook
p2413
aVuntouch
p2414
aVstartlingli
p2415
aVgruesom
p2416
aVdisgrac
p2417
aVexasperatingli
p2418
aVcounterproduct
p2419
aVharbor
p2420
aVsedentari
p2421
aVchoppi
p2422
aVstifl
p2423
aVax
p2424
aVthreat
p2425
aVknife
p2426
aVstodgi
p2427
aVwoefulli
p2428
aVmirag
p2429
aVraci
p2430
aVmalici
p2431
aVsicken
p2432
aVpicket
p2433
aVfarfetch
p2434
aVmishap
p2435
aVprocrastin
p2436
aVrepugn
p2437
aVcrook
p2438
aVannihil
p2439
aVleakag
p2440
aVlull
p2441
aVlanguor
p2442
aVodd
p2443
aVclich
p2444
aVavalanch
p2445
aVstricken
p2446
aVconspir
p2447
aVpolem
p2448
aVbearish
p2449
aVpoki
p2450
aVrotten
p2451
aVaground
p2452
aVindel
p2453
aVpertinaci
p2454
aVpitilessli
p2455
aVimpuls
p2456
aVinjustic
p2457
aVdissapoint
p2458
aVsuperstit
p2459
aVsweati
p2460
aVvibrat
p2461
aVpoverti
p2462
aVprosecut
p2463
aVnitpick
p2464
aVdiscouragingli
p2465
aVembattl
p2466
aVpunch
p2467
aVwheedl
p2468
aVnauseatingli
p2469
aVmelancholi
p2470
aVmismanag
p2471
aVsneeringli
p2472
aVsink
p2473
aVmelodramat
p2474
aVobes
p2475
aVloser
p2476
aVhard-lin
p2477
aVstark
p2478
aVspite
p2479
aVconceit
p2480
aVscreech
p2481
aVsnobbi
p2482
aVparanoid
p2483
aVrepel
p2484
aVbowdler
p2485
aVimpass
p2486
aVopinion
p2487
aVcastig
p2488
aVimpertin
p2489
aVdanger
p2490
aVforbid
p2491
aVdisobey
p2492
aVunfeel
p2493
aVinequ
p2494
aVparanoia
p2495
aVweaker
p2496
aVinfest
p2497
aVgimmick
p2498
aVcloud
p2499
aVcrap
p2500
aVbitterli
p2501
aVbreakup
p2502
aVdisgustingli
p2503
aVslug
p2504
aVimplic
p2505
aVlittle-known
p2506
aVdoubt
p2507
aVscariest
p2508
aVrecklessli
p2509
aVimprecis
p2510
aVcliqu
p2511
aVdemoralizingli
p2512
aVpiqu
p2513
aVdespic
p2514
aVsharpli
p2515
aVrivalri
p2516
aVsore
p2517
aVpresumptu
p2518
aVinfami
p2519
aVannoy
p2520
aVrecessionari
p2521
aVimpermiss
p2522
aVbereav
p2523
aVpout
p2524
aVvindict
p2525
aVcrazi
p2526
aVcumbersom
p2527
aVgruff
p2528
aVseedi
p2529
aVdownhil
p2530
aVunread
p2531
aVoverbal
p2532
aVcondescens
p2533
aVbent
p2534
aVpatron
p2535
aVhostag
p2536
aVexorbitantli
p2537
aVtax
p2538
aVvillian
p2539
aVwater-down
p2540
aVvillain
p2541
aVcondescend
p2542
aVcrimin
p2543
aVravag
p2544
aVcontempt
p2545
aVunus
p2546
aVestrang
p2547
aVdispleasur
p2548
aVget-rich
p2549
aVtamper
p2550
aVgrudgingli
p2551
aVrantingli
p2552
aVdelay
p2553
aVunskil
p2554
aVrape
p2555
aVoverst
p2556
aVembarrassingli
p2557
aVpanic
p2558
aVsin
p2559
aVinsurrect
p2560
aVtension
p2561
aVfarc
p2562
aVinconsequ
p2563
aVflagrantli
p2564
aVhazard
p2565
aVdiscomfort
p2566
aVredund
p2567
aVresent
p2568
aVdiscomfititur
p2569
aVdenounc
p2570
aVdesecr
p2571
aVlame
p2572
aVarduous
p2573
aVissu
p2574
aVungrat
p2575
aVbackbit
p2576
aVfurious
p2577
aVloud
p2578
aVunachiev
p2579
aVunforgiv
p2580
aVpoor
p2581
aVstamped
p2582
aVindignantli
p2583
aVricer
p2584
aVvilifi
p2585
aVdisarm
p2586
aVimperson
p2587
aVmeager
p2588
aVtyrant
p2589
aVdenunci
p2590
aVscorch
p2591
aVuneth
p2592
aVprevar
p2593
aVbrood
p2594
aVintefer
p2595
aVdecay
p2596
aVhobbl
p2597
aVmispronounc
p2598
aVremorseless
p2599
aVripoff
p2600
aVmordantli
p2601
aVblatant
p2602
aVseeth
p2603
aVaudici
p2604
aVdecad
p2605
aVrip-off
p2606
aVcuss
p2607
aVcrash
p2608
aVlunatic
p2609
aVlong-tim
p2610
aVflout
p2611
aVoveraw
p2612
aVoverkil
p2613
aVimmatur
p2614
aVflee
p2615
aVcrass
p2616
aVspoilag
p2617
aVvainli
p2618
aVgabbl
p2619
aVoverpow
p2620
aVmeasli
p2621
aVdisregard
p2622
aVundignifi
p2623
aVimprec
p2624
aVflair
p2625
aVperfidi
p2626
aVthwart
p2627
aVbump
p2628
aVtepid
p2629
aVupris
p2630
aVillegitim
p2631
aVimposit
p2632
aVstatic
p2633
aVbrittl
p2634
aVbanal
p2635
aVmatt
p2636
aVinexperienc
p2637
aVlukewarm
p2638
aVincompet
p2639
aVpointless
p2640
aVconfess
p2641
aVdisarray
p2642
aVanti-whit
p2643
aVrepress
p2644
aVvenom
p2645
aVrevoltingli
p2646
aVrevuls
p2647
aVwick
p2648
aVstun
p2649
aVdefens
p2650
aVobsess
p2651
aVperish
p2652
aVscoff
p2653
aVmanipul
p2654
aVwack
p2655
aVtoll
p2656
aVinvad
p2657
aVhestit
p2658
aVunipolar
p2659
aVundu
p2660
aVtrashi
p2661
aVdisintegr
p2662
aVunwieldi
p2663
aVinvas
p2664
aVembarrass
p2665
aVmendac
p2666
aVbleed
p2667
aVgreedi
p2668
aVshrew
p2669
aVchilli
p2670
aVintrus
p2671
aVunwant
p2672
aVunsteadi
p2673
aVrelentless
p2674
aVillicit
p2675
aVspookili
p2676
aVenflam
p2677
aVdissatisfactori
p2678
aVoutsid
p2679
aVuproot
p2680
aVscarc
p2681
aVscare
p2682
aVgauch
p2683
aVindiscrimin
p2684
aVmurki
p2685
aVsack
p2686
aVmadden
p2687
aVlistless
p2688
aVfatigu
p2689
aVbitch
p2690
aVpauper
p2691
aVrefus
p2692
aVinglori
p2693
aVdroop
p2694
aVstrict
p2695
aVunknown
p2696
aVlaps
p2697
aVvulgar
p2698
aVuninsur
p2699
aVattack
p2700
aVstarv
p2701
aVsadli
p2702
aVscant
p2703
aVinvidi
p2704
aVrebelli
p2705
aVtricki
p2706
aVboil
p2707
aVmisunderstood
p2708
aVchagrin
p2709
aVfuzzi
p2710
aVshallow
p2711
aVthorni
p2712
aVfeint
p2713
aVmaladi
p2714
aVlecher
p2715
aVsloppili
p2716
aVsubmiss
p2717
aVapologist
p2718
aVfatiqu
p2719
aVspurn
p2720
aVslack
p2721
aVbloat
p2722
aVbother
p2723
aVaggressor
p2724
aVbeg
p2725
aVill-favor
p2726
aVcartoonish
p2727
aVincogniz
p2728
aVdubiou
p2729
aVbull----
p2730
aVsteep
p2731
aVtorrent
p2732
aVfraudul
p2733
aVill-us
p2734
aVpremedit
p2735
aVlaughingstock
p2736
aVbeggar
p2737
aVterribl
p2738
aVsplatter
p2739
aVfail
p2740
aVtorment
p2741
aVmischief
p2742
aVoffens
p2743
aVkilljoy
p2744
aVexpropri
p2745
aVaudaci
p2746
aVbastard
p2747
aVafraid
p2748
aVdiverg
p2749
aVcontraven
p2750
aVdiscrep
p2751
aVsubject
p2752
aVhegemonist
p2753
aVunaccept
p2754
aVspinster
p2755
aVdissappoint
p2756
aVclash
p2757
aVinculc
p2758
aVunleash
p2759
aVdeplor
p2760
aVbloodthirsti
p2761
aVwarili
p2762
aVstupidli
p2763
aVarcan
p2764
aVawe
p2765
aVhoodwink
p2766
aVextermin
p2767
aVinconveni
p2768
aVstrident
p2769
aVshroud
p2770
aVdens
p2771
aVinstig
p2772
aVmaddeningli
p2773
aVupset
p2774
aVdent
p2775
aVdebas
p2776
aVdeni
p2777
aVabsurd
p2778
aVtrampl
p2779
aVfiasco
p2780
aVappallingli
p2781
aVmischiev
p2782
aVoffenc
p2783
aVrecess
p2784
aVone-sid
p2785
aVtraitor
p2786
aVshamelessli
p2787
aVfear
p2788
aVtrivial
p2789
aVthicker
p2790
aVdisillusion
p2791
aVbuggi
p2792
aVnois
p2793
aVtire
p2794
aVincorrig
p2795
aVjar
p2796
aVwreak
p2797
aVrash
p2798
aVhyster
p2799
aVinund
p2800
aVjam
p2801
aVreprov
p2802
aVoppressor
p2803
aVjag
p2804
aVdiscontinu
p2805
aVinferior
p2806
aVunhelp
p2807
aVsloww
p2808
aVtyrann
p2809
aVforebodingli
p2810
aVdisagre
p2811
aVconscon
p2812
aVscorn
p2813
aVoner
p2814
aVdarken
p2815
aVfallout
p2816
aVdisappointingli
p2817
aVcranki
p2818
aVantagonist
p2819
aVghetto
p2820
aVsmash
p2821
aVdishearten
p2822
aVmundan
p2823
aVunscrupul
p2824
aVdevast
p2825
aViniquit
p2826
aVdiametr
p2827
aVoverpr
p2828
aVunnerv
p2829
aVtime-consum
p2830
aVflicer
p2831
aVdisastr
p2832
aVunfairli
p2833
aVexpel
p2834
aVunavail
p2835
aVhorrend
p2836
aVshowdown
p2837
aVorphan
p2838
aVimmor
p2839
aVimmov
p2840
aVelection-rigg
p2841
aVdungeon
p2842
aVscathingli
p2843
aVdistressingli
p2844
aVcomplac
p2845
aVpartisan
p2846
aVindoctrin
p2847
aVmisus
p2848
aVunusu
p2849
aVself-critic
p2850
aVmislead
p2851
aVcrude
p2852
aVillusori
p2853
aVbrowbeat
p2854
aVtent
p2855
aVdouchbag
p2856
aVfigurehead
p2857
aVsorrow
p2858
aVreprimand
p2859
aVdislik
p2860
aVisol
p2861
aVbemoan
p2862
aVderogatori
p2863
aVanti-isra
p2864
aVspoil
p2865
aVunnot
p2866
aVdisput
p2867
aVdisallow
p2868
aVmulish
p2869
aVillog
p2870
aVtantrum
p2871
aVdisgruntl
p2872
aVjoke
p2873
aVgrous
p2874
aVtenuou
p2875
aVvent
p2876
aVunclear
p2877
aVlech
p2878
aVbleakli
p2879
aVveng
p2880
aVinflammatori
p2881
aVincess
p2882
aVunclean
p2883
aVtimidli
p2884
aVslowli
p2885
aVaccusingli
p2886
aVindiscret
p2887
aVanomali
p2888
aVobstacl
p2889
aVinsuffici
p2890
aVcrabbi
p2891
aVasinin
p2892
aVmuddl
p2893
aVdispiritedli
p2894
aVinjudici
p2895
aVfibber
p2896
aVf**k
p2897
aVinexor
p2898
aVferoci
p2899
aVbutcheri
p2900
aVoverturn
p2901
aVoverwhelmingli
p2902
aVshameless
p2903
aVbanish
p2904
aVtwist
p2905
aVtruant
p2906
aVremorselessli
p2907
aVwilt
p2908
aVunnervingli
p2909
aVbrat
p2910
aVchastis
p2911
aVpandemonium
p2912
aVharden
p2913
aVdefil
p2914
aVsourli
p2915
aVwili
p2916
aVdecept
p2917
aVwild
p2918
aVwile
p2919
aVpertinac
p2920
aVmislik
p2921
aVlayoff
p2922
aVrevil
p2923
aVadulteri
p2924
aVchaotic
p2925
aVdissent
p2926
aVdelusion
p2927
aVdissens
p2928
aVneurot
p2929
aVabsente
p2930
aVthug
p2931
aVunneed
p2932
aVwhore
p2933
aVapprehens
p2934
aVtyranni
p2935
aVdenial
p2936
aVlackadais
p2937
aVmisfortun
p2938
aVdefiant
p2939
aVtoppl
p2940
aVinsouci
p2941
aVdefianc
p2942
aVstrangl
p2943
aVoverzeal
p2944
aVdifficult
p2945
aVgarish
p2946
aVtedious
p2947
aVrake
p2948
aVbalk
p2949
aVselfish
p2950
aVretarded
p2951
aVmisstat
p2952
aVoutcast
p2953
aVreactionari
p2954
aVdust
p2955
aVexcruci
p2956
aVthreesom
p2957
aVbesmirch
p2958
aVrift
p2959
aVretard
p2960
aVgutter
p2961
aVimmateri
p2962
aVglower
p2963
aVdiscounten
p2964
aVfeebl
p2965
aVrife
p2966
aVdrone
p2967
aVundefin
p2968
aVdraconian
p2969
aVsporad
p2970
aVunderdog
p2971
aVdiscord
p2972
aVinefficaci
p2973
aVglut
p2974
aVmisgiv
p2975
aVmistaken
p2976
aVexpung
p2977
aVglum
p2978
aVoverzel
p2979
aVmisalign
p2980
aVhideou
p2981
aVunjust
p2982
aVrun-down
p2983
aVomit
p2984
aVimprud
p2985
aVuncompromisingli
p2986
aVnonrespons
p2987
aVscrewed-up
p2988
aVcrack
p2989
aVsugar-co
p2990
aVscoundrel
p2991
aVcontemptu
p2992
aVoverbalanc
p2993
aVvulner
p2994
aVsick
p2995
aVfate
p2996
aVhypocrici
p2997
aVatrophi
p2998
aVtaunt
p2999
aVcutthroat
p3000
aVlivid
p3001
aVpugnaci
p3002
aVengulf
p3003
aVburden
p3004
aVtesti
p3005
aVnemesi
p3006
aVwoeful
p3007
aVfrighteningli
p3008
aVincendiari
p3009
aVloss
p3010
aVtrash
p3011
aVcraftili
p3012
aVlost
p3013
aVcorrod
p3014
aVtauntingli
p3015
aVimbecil
p3016
aVirreplac
p3017
aVimprison
p3018
aVbigotri
p3019
aVbafflement
p3020
aVcrisi
p3021
aVcorros
p3022
aVambival
p3023
aVincens
p3024
aVglare
p3025
aVbrash
p3026
aVflagrant
p3027
aVleeri
p3028
aVpuzzlement
p3029
aVniggl
p3030
aVintoler
p3031
aVanti-prolifer
p3032
aVcrazili
p3033
aVmistak
p3034
aVshrug
p3035
aVcruelest
p3036
aVdisbelief
p3037
aVunderpow
p3038
aVleak
p3039
aVdesol
p3040
aVstrenuou
p3041
aVblurri
p3042
aVdisbeliev
p3043
aVenrag
p3044
aVworsen
p3045
aVpompou
p3046
aVtrap
p3047
aVhinder
p3048
aVimperfectli
p3049
aVthrottl
p3050
aVslooow
p3051
aVslur
p3052
aVimaginari
p3053
aVhooligan
p3054
aVadversari
p3055
aVcoldli
p3056
aVdoldrum
p3057
aVnoisi
p3058
aVparasit
p3059
aVreveng
p3060
aVcapsiz
p3061
aVwar-lik
p3062
aVbelat
p3063
aVrumpl
p3064
aVunwatch
p3065
aVflaki
p3066
aVdiscoutin
p3067
aVshipwreck
p3068
aVcackl
p3069
aVarrogantli
p3070
aVflake
p3071
aVfudg
p3072
aVrhapsod
p3073
aVdisabl
p3074
aVbaseless
p3075
aVdesper
p3076
aVauster
p3077
aVtortur
p3078
aVloner
p3079
aVboggl
p3080
aVchronic
p3081
aVvillifi
p3082
aVplayth
p3083
aVgape
p3084
aVkooki
p3085
aVpanick
p3086
aVheresi
p3087
aVmisjudg
p3088
aVdowngrad
p3089
aVhassl
p3090
aVheavyheart
p3091
aVfunnili
p3092
aVunhappili
p3093
aVglib
p3094
aVextort
p3095
aVcontradictori
p3096
aVunexpect
p3097
aVadmonish
p3098
aVspuriou
p3099
aVbum
p3100
aVgrate
p3101
aVassail
p3102
aVbug
p3103
aVscoffingli
p3104
aVlesser-known
p3105
aVrumbl
p3106
aVwimpi
p3107
aVdisplac
p3108
aVinjur
p3109
aVdistract
p3110
aVcruel
p3111
aVlimit
p3112
aVleech
p3113
aVswindl
p3114
aVproblem
p3115
aVsubordin
p3116
aVbewail
p3117
aVimmobil
p3118
aVunsavori
p3119
aVmeaningless
p3120
aVdearth
p3121
aVpig
p3122
aVintransig
p3123
aVexcruciatingli
p3124
aVletch
p3125
aVmisleadingli
p3126
aVdissolut
p3127
aVbuckl
p3128
aVgossip
p3129
aVdiatrib
p3130
aVdisproportion
p3131
aVdeadli
p3132
aVcredul
p3133
aVreckless
p3134
aVadam
p3135
aVover-act
p3136
aVjunk
p3137
aVjob-kil
p3138
aVtreason
p3139
aVwallow
p3140
aVdragoon
p3141
aVblameworthi
p3142
aVstab
p3143
aVovertax
p3144
aVindefens
p3145
aVsqueak
p3146
aVfickl
p3147
aVsqueal
p3148
aVghost
p3149
aVapathi
p3150
aVmassacr
p3151
aVsass
p3152
aVunsteadili
p3153
aVextran
p3154
aVover-balanc
p3155
aVemerg
p3156
aVrankl
p3157
aVreprovingli
p3158
aVmendaci
p3159
aVvehement
p3160
aVmonstros
p3161
atRp3162
.