c__builtin__
set
p1
((lp2
Vefficaci
p3
aVpardon
p4
aVpamperedli
p5
aVsaver
p6
aVsleek
p7
aVwondrou
p8
aVencouragingli
p9
aVprofici
p10
aVauthorit
p11
aVaccur
p12
aVenchantingli
p13
aVovertak
p14
aVoutwit
p15
aVregal
p16
aVcushi
p17
aVworth
p18
aVkudo
p19
aVcompassion
p20
aVlumin
p21
aVaffect
p22
aVviewabl
p23
aVflashi
p24
aVcost-sav
p25
aVenjoy
p26
aVtitil
p27
aVsooth
p28
aVempow
p29
aVvaliant
p30
aVillumin
p31
aVamus
p32
aVliberti
p33
aVhero
p34
aVjubilantli
p35
aVdelect
p36
aVfeisti
p37
aVgalor
p38
aVunforgett
p39
aVprecis
p40
aVgod-send
p41
aVportabl
p42
aVtremend
p43
aVgolden
p44
aVenvious
p45
aVfortitud
p46
aVmoral
p47
aVcalm
p48
aVrecommend
p49
aVcatchi
p50
aVexuberantli
p51
aVsolicit
p52
aVrelax
p53
aVaward
p54
aVexce
p55
aVholi
p56
aVfast-grow
p57
aVcheapest
p58
aVelegantli
p59
aVwork
p60
aVdefer
p61
aVgoood
p62
aVunassail
p63
aVjoyous
p64
aVcaptiv
p65
aVexquisit
p66
aVassuredli
p67
aVinnocu
p68
aVattract
p69
aVconcis
p70
aVhot
p71
aVwell-regard
p72
aVrecoveri
p73
aVverifi
p74
aVenergy-effici
p75
aVconfid
p76
aVrighten
p77
aVmodest
p78
aVoutshin
p79
aVbeauti
p80
aVsubstant
p81
aVlaw
p82
aVdelicaci
p83
aVloyalti
p84
aVastoundingli
p85
aVdomin
p86
aVsplendid
p87
aVovertaken
p88
aVamic
p89
aVbeautifullli
p90
aVrejoicingli
p91
aVwell-connect
p92
aVgumption
p93
aVendors
p94
aVadul
p95
aVeasy-to-us
p96
aVmodesti
p97
aVprivileg
p98
aVflexibl
p99
aVwell-inform
p100
aVstreamlin
p101
aVgentl
p102
aVbetter
p103
aVpersonag
p104
aVvalor
p105
aVcomprehens
p106
aVeasier
p107
aValluringli
p108
aVenrich
p109
aVsafe
p110
aVglorifi
p111
aVpromis
p112
aVinpress
p113
aVvictori
p114
aVlucr
p115
aVelatedli
p116
aVpersever
p117
aVbonu
p118
aVaccommod
p119
aVspotless
p120
aVluck
p121
aVdawn
p122
aVpain-fre
p123
aVennobl
p124
aVheavenli
p125
aVcontent
p126
aVindebt
p127
aVsane
p128
aVadapt
p129
aVimpass
p130
aVnavig
p131
aVworthwhil
p132
aVfave
p133
aVfree
p134
aVredempt
p135
aVfervid
p136
aVslammin
p137
aVspeedi
p138
aVflawless
p139
aVrenew
p140
aVtriumph
p141
aVeffortlessli
p142
aVinvigor
p143
aVclariti
p144
aVmesmer
p145
aVinstruct
p146
aVfantast
p147
aVtop
p148
aVeuphoria
p149
aVenthral
p150
aVmaster
p151
aVoutstandingli
p152
aVwisdom
p153
aVtrouble-fre
p154
aVhappili
p155
aVsplendidli
p156
aVunbeat
p157
aVprovid
p158
aVmerci
p159
aVcongratulatori
p160
aVrewardingli
p161
aVacclaim
p162
aVmodern
p163
aVreassur
p164
aVproblem-solv
p165
aVsubsid
p166
aVquieter
p167
aVluxuri
p168
aVterrif
p169
aVwell-mad
p170
aVovertook
p171
aVeulog
p172
aVremuner
p173
aVeagerli
p174
aVsimplifi
p175
aVplenti
p176
aVwell-backlit
p177
aVvisionari
p178
aVwellb
p179
aVorderli
p180
aVhospit
p181
aVmarvel
p182
aVprofoundli
p183
aVendear
p184
aVsage
p185
aVgutsi
p186
aVjoyou
p187
aVbest-sel
p188
aVexcitedli
p189
aVheartili
p190
aVawsom
p191
aVbliss
p192
aVrich
p193
aVvirtuou
p194
aVwell-establish
p195
aVenthus
p196
aVardor
p197
aVvener
p198
aVforemost
p199
aVrelish
p200
aVstunningli
p201
aVcleanli
p202
aVenchant
p203
aVfragrant
p204
aVfair
p205
aVrockstar
p206
aVnon-viol
p207
aVblameless
p208
aVwholesom
p209
aVrespons
p210
aVbest
p211
aVlovabl
p212
aVunparallel
p213
aVextol
p214
aVoutstand
p215
aVinvalu
p216
aVsimplest
p217
aVeyecatch
p218
aVenrapt
p219
aVdevout
p220
aVtoler
p221
aVprotect
p222
aVfearlessli
p223
aVilu
p224
aVtingl
p225
aVlogic
p226
aVfreshest
p227
aVassur
p228
aVtough
p229
aVhands-down
p230
aVexemplari
p231
aVparadis
p232
aVtrust
p233
aVbeneficiari
p234
aVgodlik
p235
aVpleasur
p236
aVnicer
p237
aVloveli
p238
aVadroitli
p239
aVcharisma
p240
aVinterest
p241
aVwarmth
p242
aVidol
p243
aVpremier
p244
aVrecomend
p245
aVwell-run
p246
aVecenom
p247
aVdote
p248
aVspellbind
p249
aVsuav
p250
aVgracious
p251
aVrighteous
p252
aVaffirm
p253
aVneat
p254
aVdotingli
p255
aVdummy-proof
p256
aVcoher
p257
aVtenaci
p258
aVuplift
p259
aVsmoothest
p260
aVharmoni
p261
aVundamag
p262
aVdazzl
p263
aVidyl
p264
aVingenu
p265
aVdelight
p266
aVfairli
p267
aVingeni
p268
aVrefin
p269
aVadmiringli
p270
aVgreatest
p271
aVbonni
p272
aVshimmeringli
p273
aVamusingli
p274
aVhuman
p275
aVdignifi
p276
aVhallow
p277
aVenlighten
p278
aVeasi
p279
aVsensat
p280
aVexalt
p281
aVpicturesqu
p282
aVsave
p283
aVbrainiest
p284
aVfirmer
p285
aVuser-replac
p286
aVaford
p287
aVnimbl
p288
aVgift
p289
aVzeal
p290
aVmeritori
p291
aVdigniti
p292
aVsplendor
p293
aVright
p294
aVflatter
p295
aVexoner
p296
aVrever
p297
aVunabashedli
p298
aVwell-posit
p299
aVwitti
p300
aVcooper
p301
aVenticingli
p302
aVstaunchli
p303
aVsensibl
p304
aVposh
p305
aVjubil
p306
aVpromot
p307
aVstylish
p308
aVsuper
p309
aVtrustworthi
p310
aVtitillatingli
p311
aVdilig
p312
aVcompliment
p313
aVtrophi
p314
aVfestiv
p315
aVcherish
p316
aVlow-pric
p317
aVmiracul
p318
aVunequivoc
p319
aVthinner
p320
aVlow-cost
p321
aVcreativ
p322
aVresili
p323
aVlavishli
p324
aVsuffici
p325
aVsupport
p326
aVopul
p327
aVhappi
p328
aVavail
p329
aVamazingli
p330
aVsagac
p331
aVsatisfactorili
p332
aVsolac
p333
aVheal
p334
aVstrike
p335
aVoutdon
p336
aVvouchsaf
p337
aVbargain
p338
aVhandili
p339
aVnicest
p340
aVworld-fam
p341
aVclassic
p342
aVleviti
p343
aVproven
p344
aVphenomen
p345
aVsoundli
p346
aVexcel
p347
aVaffabl
p348
aVwillingli
p349
aVwinnabl
p350
aVfrolic
p351
aVeye-catch
p352
aVunlimit
p353
aVmatur
p354
aVroomier
p355
aVpanoram
p356
aVclear-cut
p357
aVguiltless
p358
aVhumor
p359
aVentrust
p360
aVmightili
p361
aVfaster
p362
aVintimaci
p363
aVluckier
p364
aVwarm
p365
aVtime
p366
aVwhoooa
p367
aVdeginifi
p368
aVmind-blow
p369
aVwell-intent
p370
aVcelebr
p371
aVinvent
p372
aVsignific
p373
aVdepend
p374
aVfancier
p375
aVfanfar
p376
aVcounter-attack
p377
aVdecis
p378
aVfeasibl
p379
aVrecord-set
p380
aVcool
p381
aVreconcil
p382
aVbright
p383
aVhooray
p384
aVsweeten
p385
aVbrave
p386
aVtougher
p387
aVbravo
p388
aVinvinc
p389
aVfeat
p390
aVfavour
p391
aVappeal
p392
aVboost
p393
aVgener
p394
aVsatisfi
p395
aVentertain
p396
aVmerriment
p397
aVstandout
p398
aVbrilliant
p399
aVhealthi
p400
aVpriceless
p401
aVeasygo
p402
aVreclaim
p403
aVbrillianc
p404
aVlove
p405
aVhumour
p406
aVprefer
p407
aVhardier
p408
aVsurmount
p409
aVfresher
p410
aVsharper
p411
aVprove
p412
aVcompactli
p413
aVsuppl
p414
aVmajest
p415
aVgroundbreak
p416
aVlive
p417
aVupheld
p418
aVsporti
p419
aVafford
p420
aVintrigu
p421
aVenhanc
p422
aVsavior
p423
aVadoringli
p424
aVeasiest
p425
aVimmacul
p426
aVsoul
p427
aVpurpos
p428
aVsupremaci
p429
aVfabul
p430
aVirreproach
p431
aVgeeki
p432
aVdeservedli
p433
aVchic
p434
aVstrikingli
p435
aVpure
p436
aVlifesav
p437
aVproduct
p438
aVparamount
p439
aVpeerless
p440
aVusabl
p441
aVsucc
p442
aVcommit
p443
aVflourish
p444
aVpraiseworthi
p445
aVharmon
p446
aVfavorit
p447
aVfluent
p448
aVdreamland
p449
aVrefund
p450
aVcute
p451
aVapprov
p452
aVlyric
p453
aVseamless
p454
aVnoteworthi
p455
aVequit
p456
aVdynam
p457
aVethic
p458
aVavid
p459
aVswank
p460
aVthank
p461
aVcleanest
p462
aVinstantli
p463
aVfelicit
p464
aVwell-wish
p465
aVwealthi
p466
aVsmarter
p467
aVevoc
p468
aVlikabl
p469
aVexpediti
p470
aVhale
p471
aVhigh-spirit
p472
aVrealist
p473
aVovertur
p474
aVpolit
p475
aVcourag
p476
aVrichli
p477
aVagil
p478
aVreplac
p479
aVindividu
p480
aVcontinu
p481
aVbreakthrough
p482
aVedifi
p483
aVpinnacl
p484
aVaccomplish
p485
aVbullish
p486
aVboundless
p487
aVcorrect
p488
aVgush
p489
aVmaneuver
p490
aVdumbfound
p491
aVrighteou
p492
aVmatchless
p493
aVromant
p494
aVexuber
p495
aVhonest
p496
aVrecov
p497
aVbest-known
p498
aVprincipl
p499
aVorigin
p500
aVmerrili
p501
aVfirst-rat
p502
aVopen
p503
aVverit
p504
aVsilent
p505
aVfieri
p506
aVbounti
p507
aVunselfish
p508
aVtraction
p509
aVbreez
p510
aVsatisifi
p511
aVconveni
p512
aVinviol
p513
aVhug
p514
aVwarmheart
p515
aVseason
p516
aVbraini
p517
aVlarge-capac
p518
aVdirt-cheap
p519
aVthumbs-up
p520
aVbalanc
p521
aVoptimist
p522
aVposit
p523
aVdelic
p524
aVinfluenti
p525
aVangel
p526
aVsumptuous
p527
aVpro
p528
aVfirst-in-class
p529
aVdash
p530
aVprettili
p531
aVfertil
p532
aVwell-mann
p533
aVsolidar
p534
aVacumen
p535
aVideal
p536
aVastonishingli
p537
aVcontrasti
p538
aVexpertli
p539
aVclearer
p540
aVprodigi
p541
aVneatli
p542
aVeverlast
p543
aVswankier
p544
aVproud
p545
aVprofus
p546
aVflawlessli
p547
aVsteadi
p548
aVuncondit
p549
aVelat
p550
aVpainlessli
p551
aVmerit
p552
aVelan
p553
aVpermiss
p554
aVadventuresom
p555
aVenthusiast
p556
aVsublim
p557
aVshimmer
p558
aVsoothingli
p559
aVenthusiasm
p560
aVnobl
p561
aVlighter
p562
aVgem
p563
aVacclam
p564
aVoutperform
p565
aVemin
p566
aVtopnotch
p567
aVkeenli
p568
aVlong-last
p569
aVhonesti
p570
aVwonder
p571
aVforesight
p572
aVdexter
p573
aVsteadfast
p574
aVinnov
p575
aVenough
p576
aVimport
p577
aVkid-friendli
p578
aVlustrou
p579
aVfearless
p580
aVjovial
p581
aVcome
p582
aVultra-crisp
p583
aVtime-honor
p584
aVcrisper
p585
aVquiet
p586
aVimprov
p587
aVgaieti
p588
aVadroit
p589
aVcolor
p590
aVinspir
p591
aVnurtur
p592
aVvibrantli
p593
aVlaudabl
p594
aVstylishli
p595
aVzippi
p596
aVoverjoy
p597
aVdead-on
p598
aVspirit
p599
aVsound
p600
aVstraighten
p601
aVdextrou
p602
aVcherub
p603
aVcoolest
p604
aVadvantag
p605
aVconvinc
p606
aVgloriou
p607
aVempath
p608
aVfame
p609
aVtriumphantli
p610
aVsmoother
p611
aVeconom
p612
aVpoetic
p613
aVempathi
p614
aVbreathtakingli
p615
aVpromin
p616
aVerudit
p617
aVcommodi
p618
aVdeft
p619
aVapplaud
p620
aVcheeri
p621
aVnobli
p622
aVcapabl
p623
aVfruit
p624
aVhandsom
p625
aVappropri
p626
aVgeniu
p627
aVproblem-fre
p628
aVpride
p629
aVeffectu
p630
aVrelief
p631
aVreward
p632
aVconvient
p633
aVeuphor
p634
aVabund
p635
aVgraciou
p636
aVrest
p637
aVlavish
p638
aVpolish
p639
aVindulg
p640
aVdetach
p641
aVrosi
p642
aVdauntless
p643
aVexcept
p644
aVcivil
p645
aVall-around
p646
aVinstrument
p647
aVjaw-drop
p648
aVpreemin
p649
aVrejoic
p650
aVexult
p651
aVspectacular
p652
aVebulli
p653
aVseren
p654
aVearnest
p655
aVconscienti
p656
aVdarl
p657
aVgrin
p658
aVwell-br
p659
aVgratifyingli
p660
aVbenefic
p661
aVengross
p662
aVbenefit
p663
aVglamor
p664
aVenergy-sav
p665
aVmanag
p666
aVsupurbl
p667
aVimpecc
p668
aVsatisfactori
p669
aVadequ
p670
aVauthent
p671
aVbenefici
p672
aVslick
p673
aVgladden
p674
aVnotabl
p675
aVfreed
p676
aVpower
p677
aVration
p678
aVgratitud
p679
aVunencumb
p680
aVcornerston
p681
aVdaringli
p682
aVpieti
p683
aVindustri
p684
aVeffici
p685
aVsurviv
p686
aVchivalri
p687
aVissue-fre
p688
aVergonom
p689
aVfascin
p690
aVauspici
p691
aVregard
p692
aVpleasingli
p693
aVprospro
p694
aVupbeat
p695
aVcongratul
p696
aVgod-given
p697
aVromantic
p698
aVflatteringli
p699
aVexemplar
p700
aVaffection
p701
aVtop-qual
p702
aVpalati
p703
aVfelic
p704
aVbrotherli
p705
aVcost-effect
p706
aVtranquil
p707
aVfirst-class
p708
aVloyal
p709
aVswankiest
p710
aVimmens
p711
aVresolut
p712
aVgenuin
p713
aVa+
p714
aVprudenc
p715
aVwieldi
p716
aVwell-receiv
p717
aVunbound
p718
aVprudent
p719
aVpeac
p720
aVsuprem
p721
aVenerg
p722
aVcredenc
p723
aVconsider
p724
aVbreathtak
p725
aVfervor
p726
aVsmile
p727
aVstraightforward
p728
aVfav
p729
aVfan
p730
aVallur
p731
aVpeacekeep
p732
aVworth-whil
p733
aVheaven
p734
aVunriv
p735
aVlaud
p736
aVadjust
p737
aVhotcak
p738
aVenterpris
p739
aVquicker
p740
aVresound
p741
aVexcit
p742
aVpluss
p743
aVadvanc
p744
aVpluse
p745
aVtickl
p746
aVsweetli
p747
aVexhilaratingli
p748
aVfuturest
p749
aVplush
p750
aVempower
p751
aVsophist
p752
aVsmartest
p753
aVsociabl
p754
aVstrong
p755
aVthrift
p756
aVecstat
p757
aVeffus
p758
aVgleeful
p759
aVexamplari
p760
aVbeliev
p761
aVreadabl
p762
aVreadili
p763
aVunbias
p764
aVformid
p765
aVmemor
p766
aVselect
p767
aVzenith
p768
aVdistinct
p769
aVliber
p770
aVautonom
p771
aVgorgeous
p772
aVreachabl
p773
aVdesir
p774
aVbrisk
p775
aVpreciou
p776
aVmagnific
p777
aVglad
p778
aVvaluabl
p779
aVprompt
p780
aVuseabl
p781
aVillustri
p782
aVrectif
p783
aVsharp
p784
aVsecur
p785
aVcomfort
p786
aVdivin
p787
aVlow-risk
p788
aVrapport
p789
aVresourc
p790
aVspectacularli
p791
aVpropiti
p792
aVbloom
p793
aVflutter
p794
aVstabil
p795
aVhelp
p796
aVheartfelt
p797
aVstaunch
p798
aVpeppi
p799
aVnifti
p800
aVsumptuou
p801
aVharmless
p802
aVastonish
p803
aVjollifi
p804
aVtantalizingli
p805
aVdelici
p806
aVfiner
p807
aVgood
p808
aVamelior
p809
aVsuperbl
p810
aVcharismat
p811
aVadventur
p812
aVrefresh
p813
aVbless
p814
aVachiev
p815
aVpamper
p816
aVrevel
p817
aVexhilar
p818
aVevent
p819
aVrenaiss
p820
aVnoiseless
p821
aVftw
p822
aVfoolproof
p823
aVsharpest
p824
aVhealth
p825
aVtrusti
p826
aVjolli
p827
aVextraordinari
p828
aVqualifi
p829
aVgorgeou
p830
aVheroiz
p831
aVpleasant
p832
aVreason
p833
aVheroin
p834
aVbrightest
p835
aVheroic
p836
aVexaltedli
p837
aVrevolutionari
p838
aVimacul
p839
aVfamou
p840
aVwell-educ
p841
aVwell-known
p842
aVrevolution
p843
aVwell-round
p844
aVeffortless
p845
aVstabl
p846
aVglitter
p847
aVfanci
p848
aVbreathless
p849
aVblossom
p850
aVunrestrict
p851
aVconstruct
p852
aVsaint
p853
aVaver
p854
aVcomfi
p855
aVenliven
p856
aVcongeni
p857
aVfervidli
p858
aVconvieni
p859
aVgleefulli
p860
aVgrace
p861
aVkind
p862
aVyouth
p863
aVdank
p864
aVkindli
p865
aVconvienc
p866
aVdiversifi
p867
aVcleaner
p868
aVwell
p869
aVsturdier
p870
aVdedic
p871
aVswanki
p872
aVimagin
p873
aVthrillingli
p874
aVplay
p875
aVexel
p876
aVbeauteou
p877
aVstate-of-the-art
p878
aVcharm
p879
aVprestigi
p880
aVadulatori
p881
aVamaz
p882
aVjustli
p883
aVclear
p884
aVcoven
p885
aVclean
p886
aVsturdi
p887
aVwarmli
p888
aVawesom
p889
aVgold
p890
aVpre-emin
p891
aVinestim
p892
aVfond
p893
aVhumil
p894
aVtop-notch
p895
aVreput
p896
aVfine
p897
aVaffin
p898
aVpretti
p899
aVself-satisfact
p900
aVoutshon
p901
aVremedi
p902
aVprowess
p903
aVwell-balanc
p904
aVcharmingli
p905
aVpois
p906
aVcheaper
p907
aVfamous
p908
aVgratif
p909
aVfastest
p910
aVcompass
p911
aVambiti
p912
aVhomag
p913
aVrespit
p914
aVcleverli
p915
aVproactiv
p916
aVtender
p917
aVspiritu
p918
aVwow
p919
aVwoo
p920
aVrestructur
p921
aVfortuit
p922
aVthrive
p923
aVappreci
p924
aVcomplement
p925
aVaspir
p926
aVsucceed
p927
aVcomplementari
p928
aVdistinguish
p929
aVtrustingli
p930
aVgaili
p931
aVsweet
p932
aVconsumm
p933
aVlower-pr
p934
aVfashion
p935
aVmajesti
p936
aVbolster
p937
aVrock-star
p938
aVlight-heart
p939
aVwhoa
p940
aVsweetheart
p941
aVgoodli
p942
aVchampion
p943
aVremark
p944
aVunderstand
p945
aVeduc
p946
aVexcitingli
p947
aVcure-al
p948
aVsolid
p949
aVaccolad
p950
aVspellbindingli
p951
aVfun
p952
aVecstasi
p953
aVreadi
p954
aVastound
p955
aVchast
p956
aVheadway
p957
aVvirtu
p958
aVastut
p959
aVgrand
p960
aVampli
p961
aVgoodwil
p962
aVoptim
p963
aVpainless
p964
aVcelebratori
p965
aVmoment
p966
aVbraveri
p967
aVrobust
p968
aVampl
p969
aVeleg
p970
aVsavvi
p971
aVperson
p972
aVcheer
p973
aVelev
p974
aVself-determin
p975
aVcajol
p976
aVopenli
p977
aVglitz
p978
aVsnappi
p979
aVstimul
p980
aVuncompl
p981
aVeager
p982
aVbrand-new
p983
aVdare
p984
aVexcited
p985
aVspeedili
p986
aVundisput
p987
aVtranspar
p988
aVstirringli
p989
aVintuit
p990
aVredeem
p991
aVabound
p992
aVself-suffici
p993
aVbackbon
p994
aVneatest
p995
aVpopular
p996
aVfancin
p997
aVhallmark
p998
aVmighti
p999
aVtrendi
p1000
aVsprightli
p1001
aVstrongest
p1002
aVunquestion
p1003
aVtwinkli
p1004
aVpep
p1005
aVnovelti
p1006
aVpatient
p1007
aVintellig
p1008
aVbenefactor
p1009
aVpatienc
p1010
aVvivid
p1011
aVshine
p1012
aVfaith
p1013
aVfecilit
p1014
aVenviabl
p1015
aVcomplimentari
p1016
aVshini
p1017
aVmasterpiec
p1018
aVconciliatori
p1019
aVfulfil
p1020
aVmiracl
p1021
aVhigh-qual
p1022
aVwell-behav
p1023
aVmesmerizingli
p1024
aVdurabl
p1025
aVgusto
p1026
aVfast
p1027
aVglowingli
p1028
aVglow
p1029
aVstyliz
p1030
aVproperli
p1031
aVstatuesqu
p1032
aVpatriot
p1033
aVconsist
p1034
aVintim
p1035
aVawestruck
p1036
aVgenial
p1037
aVreconcili
p1038
aVcashback
p1039
aVcure
p1040
aVspontan
p1041
aVpeach
p1042
aVmulti-purpos
p1043
aVretract
p1044
aVnice
p1045
aVvivaci
p1046
aVsmitten
p1047
aVlucid
p1048
aVmeaning
p1049
aVvigil
p1050
aVunaffect
p1051
aVdeserv
p1052
aVchivalr
p1053
aVhappier
p1054
aVevenli
p1055
aVrestor
p1056
aVfresh
p1057
aVlaw-abid
p1058
aVfascinatingli
p1059
aVpeaceabl
p1060
aVrenown
p1061
aVbenevol
p1062
aVcompact
p1063
aVuphold
p1064
aVsensit
p1065
aVfriendli
p1066
aVvirtuous
p1067
aVsteadiest
p1068
aVenviou
p1069
aVmagic
p1070
aVoutdo
p1071
aVpleas
p1072
aVfortun
p1073
aVfast-pac
p1074
aVmeticul
p1075
aVagreeabl
p1076
aVaccomod
p1077
aVardent
p1078
aVblith
p1079
aVcompat
p1080
aVzest
p1081
aVoutsmart
p1082
aVaccess
p1083
aVrelent
p1084
aVled
p1085
aVsexi
p1086
aVcozi
p1087
aVapotheosi
p1088
aVstellar
p1089
aVgreat
p1090
aVtalent
p1091
aVsurvivor
p1092
aVquaint
p1093
aVdefeat
p1094
aVtoll-fre
p1095
aVhonor
p1096
aVovat
p1097
aVhardi
p1098
aVwin
p1099
aVthumb-up
p1100
aVprestig
p1101
aVbeckon
p1102
aVtrump
p1103
aVuse
p1104
aVupgrad
p1105
aVgeneros
p1106
aVadvoc
p1107
aVsteadfastli
p1108
aVclever
p1109
aVgladli
p1110
aVimpress
p1111
aVfaultless
p1112
aVbetter-than-expect
p1113
aVunreal
p1114
aVrapt
p1115
aVwell-b
p1116
aVtrumpet
p1117
aVbuoyant
p1118
aVdanken
p1119
aVluster
p1120
aVprolif
p1121
aVbenifit
p1122
aVupscal
p1123
aVattent
p1124
aVclassi
p1125
aVinsight
p1126
aVelit
p1127
aVsalut
p1128
aVperfect
p1129
aVsuperior
p1130
aVhard-work
p1131
aVglee
p1132
aVwilling
p1133
aVspellbound
p1134
aVsupurb
p1135
aVrecept
p1136
aVprosper
p1137
aVlegendari
p1138
aVunmatch
p1139
aVhandi
p1140
aVfacilit
p1141
aVstrive
p1142
aVamiabl
p1143
aVthrill
p1144
aVprofound
p1145
aVscenic
p1146
aVradiant
p1147
aVtruth
p1148
aVmasteri
p1149
aVradianc
p1150
aVtantal
p1151
aVilluminati
p1152
aVcourteou
p1153
aVupliftingli
p1154
aVspaciou
p1155
aVgallant
p1156
aVthrifti
p1157
aVdefend
p1158
aVfondli
p1159
aVrejuven
p1160
aVremiss
p1161
aVsuitabl
p1162
aVstun
p1163
aVobsess
p1164
aVcharit
p1165
aVenraptur
p1166
aVerr-fre
p1167
aVtempt
p1168
aVpromptli
p1169
aVkeen
p1170
aVfine-look
p1171
aVsofter
p1172
aVwhooa
p1173
aVhandier
p1174
aVfinest
p1175
aVresplend
p1176
aVsuffic
p1177
aVbonus
p1178
aVglisten
p1179
aVperfectli
p1180
aVcompliant
p1181
aVsalutari
p1182
aVconvincingli
p1183
aVunfett
p1184
aVhilari
p1185
aVexultingli
p1186
aVvouch
p1187
aVreaffirm
p1188
aVstupend
p1189
aVsnazzi
p1190
aVbeuti
p1191
aVricher
p1192
aVfrugal
p1193
aVhalcyon
p1194
aVlover
p1195
aVextraordinarili
p1196
aVclearli
p1197
aVintric
p1198
aVfeature-rich
p1199
aVoutstrip
p1200
aVcohes
p1201
aVintriguingli
p1202
aVtidi
p1203
aVsaintli
p1204
aVtriumphal
p1205
aVtoughest
p1206
aVenerget
p1207
aVfidel
p1208
aVbetter-known
p1209
aVattun
p1210
aVawe
p1211
aVrisk-fre
p1212
aVjudici
p1213
aVfervent
p1214
aVpurifi
p1215
aVstronger
p1216
aVinexpens
p1217
aVtrivial
p1218
aVwinner
p1219
aVbrighten
p1220
aVbrighter
p1221
aVenvi
p1222
aVwon
p1223
aVsparkl
p1224
aVhope
p1225
aVcontribut
p1226
aVraptur
p1227
aVgratifi
p1228
aVlucki
p1229
aVamiabili
p1230
aVaffluent
p1231
aVintegr
p1232
aVaffluenc
p1233
aVcredibl
p1234
aVknowledg
p1235
aVluckiest
p1236
aVentranc
p1237
aVbeautifi
p1238
aVcorrectli
p1239
aVreform
p1240
aVsuperb
p1241
aVfavor
p1242
aVstate
p1243
aVbelov
p1244
aVdestini
p1245
aVprogress
p1246
aVentic
p1247
aVmerri
p1248
aVamen
p1249
aVjoy
p1250
aVsmilingli
p1251
aVunwav
p1252
aVstellarli
p1253
aVswift
p1254
aVheartwarm
p1255
aVinvulner
p1256
aVaudibl
p1257
aVadmir
p1258
aVarticul
p1259
aVvaliantli
p1260
aVglorious
p1261
aVgooood
p1262
aVinfal
p1263
aVcommend
p1264
aVrespect
p1265
aVyay
p1266
aVdecent
p1267
aVelectrifi
p1268
aVeloqu
p1269
aVhottest
p1270
aVgeekier
p1271
aVdecenc
p1272
aValtruist
p1273
aVtenderli
p1274
aVtreasur
p1275
aVtogeth
p1276
aVador
p1277
aVcarefre
p1278
aVwill
p1279
aVdead-cheap
p1280
aVengag
p1281
aVlush
p1282
aVhearten
p1283
aVmotiv
p1284
aVrevit
p1285
aVreviv
p1286
aVtemptingli
p1287
aVuniti
p1288
aVwelcom
p1289
aVundaunt
p1290
aVgrandeur
p1291
aVcompetit
p1292
aVprais
p1293
aVexpans
p1294
aVeffect
p1295
aVpleasantli
p1296
aVexceedingli
p1297
aVpampered
p1298
aVuser-friendli
p1299
aVtenac
p1300
aVversatil
p1301
aVthought
p1302
aVobtain
p1303
aVroomi
p1304
aVself-respect
p1305
aVsurpass
p1306
aVskill
p1307
aVgentlest
p1308
aVrapid
p1309
aVearnestli
p1310
aVavidli
p1311
aVimparti
p1312
aVsmart
p1313
aVpunctual
p1314
aVsweep
p1315
aVrealiz
p1316
aVcrisp
p1317
aVlike
p1318
aVsuccess
p1319
aVincred
p1320
aVvibrant
p1321
aVlucidli
p1322
aVirreplac
p1323
aVirresist
p1324
aVsoft
p1325
aVrazor-sharp
p1326
aVexceed
p1327
aVunfaz
p1328
aVhail
p1329
aVcourtli
p1330
aVwarmer
p1331
aVconcili
p1332
aVsmoothli
p1333
aVproper
p1334
aVguarante
p1335
aVlead
p1336
aVlean
p1337
aVsustain
p1338
aVpassion
p1339
aVencourag
p1340
aVworthi
p1341
aVexcal
p1342
aVpoignant
p1343
aVsimpler
p1344
aVfreedom
p1345
aVfuturist
p1346
aVblockbust
p1347
aVsmartli
p1348
aVjubili
p1349
aVbrilliantli
p1350
aVchamp
p1351
aVrectifi
p1352
aVlionheart
p1353
aVleverag
p1354
aVdoubtless
p1355
aVstainless
p1356
aVoasi
p1357
aVglimmer
p1358
aVnourish
p1359
aVmagnanim
p1360
aVwell-manag
p1361
aVgain
p1362
aVgrate
p1363
aVeas
p1364
aVamiti
p1365
aVsucce
p1366
aVwise
p1367
aVfastest-grow
p1368
aVembolden
p1369
aVsmooth
p1370
aVtriumphant
p1371
aVexaltingli
p1372
aVglori
p1373
aVmonument
p1374
aVexamplar
p1375
aVevalu
p1376
aVrightli
p1377
aVbest-perform
p1378
aVworkabl
p1379
aVdiplomat
p1380
aVunabash
p1381
aVguidanc
p1382
aVgallantli
p1383
aVsurreal
p1384
aVboom
p1385
aVvarieti
p1386
aVwindfal
p1387
aVwholeheartedli
p1388
aVgodsend
p1389
aVhumbl
p1390
aVprize
p1391
aVreliabl
p1392
aVsincer
p1393
atRp1394
.